                                      1 ;--------------------------------------------------------
                                      2 ; File Created by SDCC : free open source ISO C Compiler
                                      3 ; Version 4.5.0 #15242 (Mac OS X ppc)
                                      4 ;--------------------------------------------------------
                                      5 	.module RDA5807M
                                      6 	
                                      7 	.optsdcc -mmcs51 --model-small
                                      8 ;--------------------------------------------------------
                                      9 ; Public variables in this module
                                     10 ;--------------------------------------------------------
                                     11 	.globl _RDA5807M_Reast
                                     12 	.globl _RDA5807M_Set_Freqspace_step
                                     13 	.globl _RDA5807M_Set_FreqRange
                                     14 	.globl _seek
                                     15 	.globl _RDA5807M_ChanToFreq
                                     16 	.globl _RDA5807M_FreqToChan
                                     17 	.globl _RDA5807M_Read_Reg
                                     18 	.globl _RDA5807M_Write_Reg
                                     19 	.globl _I2C_ReadByte
                                     20 	.globl _I2C_SendByte
                                     21 	.globl _I2C_End
                                     22 	.globl _I2C_Start
                                     23 	.globl _CONF_GET_RADIO_INDEX
                                     24 	.globl _CONF_RADIO_PUT
                                     25 	.globl _CONF_RADIO_ERASE
                                     26 	.globl _CONF_SET_VOL
                                     27 	.globl _Delay
                                     28 	.globl _CCF0
                                     29 	.globl _CCF1
                                     30 	.globl _CCF2
                                     31 	.globl _CR
                                     32 	.globl _CF
                                     33 	.globl _RI
                                     34 	.globl _TI
                                     35 	.globl _RB8
                                     36 	.globl _TB8
                                     37 	.globl _REN
                                     38 	.globl _SM2
                                     39 	.globl _SM1
                                     40 	.globl _SM0
                                     41 	.globl _IT0
                                     42 	.globl _IE0
                                     43 	.globl _IT1
                                     44 	.globl _IE1
                                     45 	.globl _TR0
                                     46 	.globl _TF0
                                     47 	.globl _TR1
                                     48 	.globl _TF1
                                     49 	.globl _PX0
                                     50 	.globl _PT0
                                     51 	.globl _PX1
                                     52 	.globl _PT1
                                     53 	.globl _PS
                                     54 	.globl _PADC
                                     55 	.globl _PLVD
                                     56 	.globl _PPCA
                                     57 	.globl _EX0
                                     58 	.globl _ET0
                                     59 	.globl _EX1
                                     60 	.globl _ET1
                                     61 	.globl _ES
                                     62 	.globl _EADC
                                     63 	.globl _ELVD
                                     64 	.globl _EA
                                     65 	.globl _P77
                                     66 	.globl _P76
                                     67 	.globl _P75
                                     68 	.globl _P74
                                     69 	.globl _P73
                                     70 	.globl _P72
                                     71 	.globl _P71
                                     72 	.globl _P70
                                     73 	.globl _P67
                                     74 	.globl _P66
                                     75 	.globl _P65
                                     76 	.globl _P64
                                     77 	.globl _P63
                                     78 	.globl _P62
                                     79 	.globl _P61
                                     80 	.globl _P60
                                     81 	.globl _P57
                                     82 	.globl _P56
                                     83 	.globl _P55
                                     84 	.globl _P54
                                     85 	.globl _P53
                                     86 	.globl _P52
                                     87 	.globl _P51
                                     88 	.globl _P50
                                     89 	.globl _P47
                                     90 	.globl _P46
                                     91 	.globl _P45
                                     92 	.globl _P44
                                     93 	.globl _P43
                                     94 	.globl _P42
                                     95 	.globl _P41
                                     96 	.globl _P40
                                     97 	.globl _P37
                                     98 	.globl _P36
                                     99 	.globl _P35
                                    100 	.globl _P34
                                    101 	.globl _P33
                                    102 	.globl _P32
                                    103 	.globl _P31
                                    104 	.globl _P30
                                    105 	.globl _P27
                                    106 	.globl _P26
                                    107 	.globl _P25
                                    108 	.globl _P24
                                    109 	.globl _P23
                                    110 	.globl _P22
                                    111 	.globl _P21
                                    112 	.globl _P20
                                    113 	.globl _P17
                                    114 	.globl _P16
                                    115 	.globl _P15
                                    116 	.globl _P14
                                    117 	.globl _P13
                                    118 	.globl _P12
                                    119 	.globl _P11
                                    120 	.globl _P10
                                    121 	.globl _P07
                                    122 	.globl _P06
                                    123 	.globl _P05
                                    124 	.globl _P04
                                    125 	.globl _P03
                                    126 	.globl _P02
                                    127 	.globl _P01
                                    128 	.globl _P00
                                    129 	.globl _P
                                    130 	.globl _F1
                                    131 	.globl _OV
                                    132 	.globl _RS0
                                    133 	.globl _RS1
                                    134 	.globl _F0
                                    135 	.globl _AC
                                    136 	.globl _CY
                                    137 	.globl _PWMFDCR
                                    138 	.globl _PWMIF
                                    139 	.globl _PWMCR
                                    140 	.globl _PWMCFG
                                    141 	.globl _CMPCR2
                                    142 	.globl _CMPCR1
                                    143 	.globl _CCAP2H
                                    144 	.globl _CCAP1H
                                    145 	.globl _CCAP0H
                                    146 	.globl _PCA_PWM2
                                    147 	.globl _PCA_PWM1
                                    148 	.globl _PCA_PWM0
                                    149 	.globl _CCAP2L
                                    150 	.globl _CCAP1L
                                    151 	.globl _CCAP0L
                                    152 	.globl _CCAPM2
                                    153 	.globl _CCAPM1
                                    154 	.globl _CCAPM0
                                    155 	.globl _CH
                                    156 	.globl _CL
                                    157 	.globl _CMOD
                                    158 	.globl _CCON
                                    159 	.globl _IAP_CONTR
                                    160 	.globl _IAP_TRIG
                                    161 	.globl _IAP_CMD
                                    162 	.globl _IAP_ADDRL
                                    163 	.globl _IAP_ADDRH
                                    164 	.globl _IAP_DATA
                                    165 	.globl _SPDAT
                                    166 	.globl _SPCTL
                                    167 	.globl _SPSTAT
                                    168 	.globl _ADC_RESL
                                    169 	.globl _ADC_RES
                                    170 	.globl _ADC_CONTR
                                    171 	.globl _SADEN
                                    172 	.globl _SADDR
                                    173 	.globl _S4BUF
                                    174 	.globl _S4CON
                                    175 	.globl _S3BUF
                                    176 	.globl _S3CON
                                    177 	.globl _S2BUF
                                    178 	.globl _S2CON
                                    179 	.globl _SBUF
                                    180 	.globl _SCON
                                    181 	.globl _WDT_CONTR
                                    182 	.globl _WKTCH
                                    183 	.globl _WKTCL
                                    184 	.globl _T2L
                                    185 	.globl _T2H
                                    186 	.globl _T3L
                                    187 	.globl _T3H
                                    188 	.globl _T4L
                                    189 	.globl _T4H
                                    190 	.globl _T3T4M
                                    191 	.globl _T4T3M
                                    192 	.globl _TH1
                                    193 	.globl _TH0
                                    194 	.globl _TL1
                                    195 	.globl _TL0
                                    196 	.globl _TMOD
                                    197 	.globl _TCON
                                    198 	.globl _INT_CLKO
                                    199 	.globl _IP2
                                    200 	.globl _IE2
                                    201 	.globl _IP
                                    202 	.globl _IE
                                    203 	.globl _P_SW2
                                    204 	.globl _P1ASF
                                    205 	.globl _BUS_SPEED
                                    206 	.globl _CLK_DIV
                                    207 	.globl _P_SW1
                                    208 	.globl _AUXR1
                                    209 	.globl _AUXR
                                    210 	.globl _PCON
                                    211 	.globl _P7M1
                                    212 	.globl _P7M0
                                    213 	.globl _P6M1
                                    214 	.globl _P6M0
                                    215 	.globl _P5M1
                                    216 	.globl _P5M0
                                    217 	.globl _P4M1
                                    218 	.globl _P4M0
                                    219 	.globl _P3M1
                                    220 	.globl _P3M0
                                    221 	.globl _P2M1
                                    222 	.globl _P2M0
                                    223 	.globl _P1M1
                                    224 	.globl _P1M0
                                    225 	.globl _P0M1
                                    226 	.globl _P0M0
                                    227 	.globl _P7
                                    228 	.globl _P6
                                    229 	.globl _P5
                                    230 	.globl _P4
                                    231 	.globl _P3
                                    232 	.globl _P2
                                    233 	.globl _P1
                                    234 	.globl _P0
                                    235 	.globl _DPH
                                    236 	.globl _DPL
                                    237 	.globl _SP
                                    238 	.globl _PSW
                                    239 	.globl _B
                                    240 	.globl _ACC
                                    241 	.globl _RDA5807M_Write_Reg_PARM_2
                                    242 	.globl _MUTE_STATUS
                                    243 	.globl _RDA5807M_init
                                    244 	.globl _RDA5807M_Read_Freq
                                    245 	.globl _RDA5807M_Set_Freq
                                    246 	.globl _RDA5807M_Read_SNR
                                    247 	.globl _RDA5807M_Set_SNR
                                    248 	.globl _RDA5807M_Seek
                                    249 	.globl _RDA5807M_Radio_TRUE
                                    250 	.globl _RDA5807M_Search_Automatic
                                    251 	.globl _RDA5807M_Set_Volume
                                    252 	.globl _RDA5807M_SetMUTE
                                    253 	.globl _RDA5807M_CHANGE_MUTE
                                    254 	.globl _RDA5807M_Set_Output_Idle
                                    255 	.globl _RDA5807M_Read_RSSI
                                    256 	.globl _RDA5807M_CHIPID
                                    257 ;--------------------------------------------------------
                                    258 ; special function registers
                                    259 ;--------------------------------------------------------
                                    260 	.area RSEG    (ABS,DATA)
      000000                        261 	.org 0x0000
                           0000E0   262 _ACC	=	0x00e0
                           0000F0   263 _B	=	0x00f0
                           0000D0   264 _PSW	=	0x00d0
                           000081   265 _SP	=	0x0081
                           000082   266 _DPL	=	0x0082
                           000083   267 _DPH	=	0x0083
                           000080   268 _P0	=	0x0080
                           000090   269 _P1	=	0x0090
                           0000A0   270 _P2	=	0x00a0
                           0000B0   271 _P3	=	0x00b0
                           0000C0   272 _P4	=	0x00c0
                           0000C8   273 _P5	=	0x00c8
                           0000E8   274 _P6	=	0x00e8
                           0000F8   275 _P7	=	0x00f8
                           000094   276 _P0M0	=	0x0094
                           000093   277 _P0M1	=	0x0093
                           000092   278 _P1M0	=	0x0092
                           000091   279 _P1M1	=	0x0091
                           000096   280 _P2M0	=	0x0096
                           000095   281 _P2M1	=	0x0095
                           0000B2   282 _P3M0	=	0x00b2
                           0000B1   283 _P3M1	=	0x00b1
                           0000B4   284 _P4M0	=	0x00b4
                           0000B3   285 _P4M1	=	0x00b3
                           0000CA   286 _P5M0	=	0x00ca
                           0000C9   287 _P5M1	=	0x00c9
                           0000CC   288 _P6M0	=	0x00cc
                           0000CB   289 _P6M1	=	0x00cb
                           0000E2   290 _P7M0	=	0x00e2
                           0000E1   291 _P7M1	=	0x00e1
                           000087   292 _PCON	=	0x0087
                           00008E   293 _AUXR	=	0x008e
                           0000A2   294 _AUXR1	=	0x00a2
                           0000A2   295 _P_SW1	=	0x00a2
                           000097   296 _CLK_DIV	=	0x0097
                           0000A1   297 _BUS_SPEED	=	0x00a1
                           00009D   298 _P1ASF	=	0x009d
                           0000BA   299 _P_SW2	=	0x00ba
                           0000A8   300 _IE	=	0x00a8
                           0000B8   301 _IP	=	0x00b8
                           0000AF   302 _IE2	=	0x00af
                           0000B5   303 _IP2	=	0x00b5
                           00008F   304 _INT_CLKO	=	0x008f
                           000088   305 _TCON	=	0x0088
                           000089   306 _TMOD	=	0x0089
                           00008A   307 _TL0	=	0x008a
                           00008B   308 _TL1	=	0x008b
                           00008C   309 _TH0	=	0x008c
                           00008D   310 _TH1	=	0x008d
                           0000D1   311 _T4T3M	=	0x00d1
                           0000D1   312 _T3T4M	=	0x00d1
                           0000D2   313 _T4H	=	0x00d2
                           0000D3   314 _T4L	=	0x00d3
                           0000D4   315 _T3H	=	0x00d4
                           0000D5   316 _T3L	=	0x00d5
                           0000D6   317 _T2H	=	0x00d6
                           0000D7   318 _T2L	=	0x00d7
                           0000AA   319 _WKTCL	=	0x00aa
                           0000AB   320 _WKTCH	=	0x00ab
                           0000C1   321 _WDT_CONTR	=	0x00c1
                           000098   322 _SCON	=	0x0098
                           000099   323 _SBUF	=	0x0099
                           00009A   324 _S2CON	=	0x009a
                           00009B   325 _S2BUF	=	0x009b
                           0000AC   326 _S3CON	=	0x00ac
                           0000AD   327 _S3BUF	=	0x00ad
                           000084   328 _S4CON	=	0x0084
                           000085   329 _S4BUF	=	0x0085
                           0000A9   330 _SADDR	=	0x00a9
                           0000B9   331 _SADEN	=	0x00b9
                           0000BC   332 _ADC_CONTR	=	0x00bc
                           0000BD   333 _ADC_RES	=	0x00bd
                           0000BE   334 _ADC_RESL	=	0x00be
                           0000CD   335 _SPSTAT	=	0x00cd
                           0000CE   336 _SPCTL	=	0x00ce
                           0000CF   337 _SPDAT	=	0x00cf
                           0000C2   338 _IAP_DATA	=	0x00c2
                           0000C3   339 _IAP_ADDRH	=	0x00c3
                           0000C4   340 _IAP_ADDRL	=	0x00c4
                           0000C5   341 _IAP_CMD	=	0x00c5
                           0000C6   342 _IAP_TRIG	=	0x00c6
                           0000C7   343 _IAP_CONTR	=	0x00c7
                           0000D8   344 _CCON	=	0x00d8
                           0000D9   345 _CMOD	=	0x00d9
                           0000E9   346 _CL	=	0x00e9
                           0000F9   347 _CH	=	0x00f9
                           0000DA   348 _CCAPM0	=	0x00da
                           0000DB   349 _CCAPM1	=	0x00db
                           0000DC   350 _CCAPM2	=	0x00dc
                           0000EA   351 _CCAP0L	=	0x00ea
                           0000EB   352 _CCAP1L	=	0x00eb
                           0000EC   353 _CCAP2L	=	0x00ec
                           0000F2   354 _PCA_PWM0	=	0x00f2
                           0000F3   355 _PCA_PWM1	=	0x00f3
                           0000F4   356 _PCA_PWM2	=	0x00f4
                           0000FA   357 _CCAP0H	=	0x00fa
                           0000FB   358 _CCAP1H	=	0x00fb
                           0000FC   359 _CCAP2H	=	0x00fc
                           0000E6   360 _CMPCR1	=	0x00e6
                           0000E7   361 _CMPCR2	=	0x00e7
                           0000F1   362 _PWMCFG	=	0x00f1
                           0000F5   363 _PWMCR	=	0x00f5
                           0000F6   364 _PWMIF	=	0x00f6
                           0000F7   365 _PWMFDCR	=	0x00f7
                                    366 ;--------------------------------------------------------
                                    367 ; special function bits
                                    368 ;--------------------------------------------------------
                                    369 	.area RSEG    (ABS,DATA)
      000000                        370 	.org 0x0000
                           0000D7   371 _CY	=	0x00d7
                           0000D6   372 _AC	=	0x00d6
                           0000D5   373 _F0	=	0x00d5
                           0000D4   374 _RS1	=	0x00d4
                           0000D3   375 _RS0	=	0x00d3
                           0000D2   376 _OV	=	0x00d2
                           0000D1   377 _F1	=	0x00d1
                           0000D0   378 _P	=	0x00d0
                           000080   379 _P00	=	0x0080
                           000081   380 _P01	=	0x0081
                           000082   381 _P02	=	0x0082
                           000083   382 _P03	=	0x0083
                           000084   383 _P04	=	0x0084
                           000085   384 _P05	=	0x0085
                           000086   385 _P06	=	0x0086
                           000087   386 _P07	=	0x0087
                           000090   387 _P10	=	0x0090
                           000091   388 _P11	=	0x0091
                           000092   389 _P12	=	0x0092
                           000093   390 _P13	=	0x0093
                           000094   391 _P14	=	0x0094
                           000095   392 _P15	=	0x0095
                           000096   393 _P16	=	0x0096
                           000097   394 _P17	=	0x0097
                           0000A0   395 _P20	=	0x00a0
                           0000A1   396 _P21	=	0x00a1
                           0000A2   397 _P22	=	0x00a2
                           0000A3   398 _P23	=	0x00a3
                           0000A4   399 _P24	=	0x00a4
                           0000A5   400 _P25	=	0x00a5
                           0000A6   401 _P26	=	0x00a6
                           0000A7   402 _P27	=	0x00a7
                           0000B0   403 _P30	=	0x00b0
                           0000B1   404 _P31	=	0x00b1
                           0000B2   405 _P32	=	0x00b2
                           0000B3   406 _P33	=	0x00b3
                           0000B4   407 _P34	=	0x00b4
                           0000B5   408 _P35	=	0x00b5
                           0000B6   409 _P36	=	0x00b6
                           0000B7   410 _P37	=	0x00b7
                           0000C0   411 _P40	=	0x00c0
                           0000C1   412 _P41	=	0x00c1
                           0000C2   413 _P42	=	0x00c2
                           0000C3   414 _P43	=	0x00c3
                           0000C4   415 _P44	=	0x00c4
                           0000C5   416 _P45	=	0x00c5
                           0000C6   417 _P46	=	0x00c6
                           0000C7   418 _P47	=	0x00c7
                           0000C8   419 _P50	=	0x00c8
                           0000C9   420 _P51	=	0x00c9
                           0000CA   421 _P52	=	0x00ca
                           0000CB   422 _P53	=	0x00cb
                           0000CC   423 _P54	=	0x00cc
                           0000CD   424 _P55	=	0x00cd
                           0000CE   425 _P56	=	0x00ce
                           0000CF   426 _P57	=	0x00cf
                           0000E8   427 _P60	=	0x00e8
                           0000E9   428 _P61	=	0x00e9
                           0000EA   429 _P62	=	0x00ea
                           0000EB   430 _P63	=	0x00eb
                           0000EC   431 _P64	=	0x00ec
                           0000ED   432 _P65	=	0x00ed
                           0000EE   433 _P66	=	0x00ee
                           0000EF   434 _P67	=	0x00ef
                           0000F8   435 _P70	=	0x00f8
                           0000F9   436 _P71	=	0x00f9
                           0000FA   437 _P72	=	0x00fa
                           0000FB   438 _P73	=	0x00fb
                           0000FC   439 _P74	=	0x00fc
                           0000FD   440 _P75	=	0x00fd
                           0000FE   441 _P76	=	0x00fe
                           0000FF   442 _P77	=	0x00ff
                           0000AF   443 _EA	=	0x00af
                           0000AE   444 _ELVD	=	0x00ae
                           0000AD   445 _EADC	=	0x00ad
                           0000AC   446 _ES	=	0x00ac
                           0000AB   447 _ET1	=	0x00ab
                           0000AA   448 _EX1	=	0x00aa
                           0000A9   449 _ET0	=	0x00a9
                           0000A8   450 _EX0	=	0x00a8
                           0000BF   451 _PPCA	=	0x00bf
                           0000BE   452 _PLVD	=	0x00be
                           0000BD   453 _PADC	=	0x00bd
                           0000BC   454 _PS	=	0x00bc
                           0000BB   455 _PT1	=	0x00bb
                           0000BA   456 _PX1	=	0x00ba
                           0000B9   457 _PT0	=	0x00b9
                           0000B8   458 _PX0	=	0x00b8
                           00008F   459 _TF1	=	0x008f
                           00008E   460 _TR1	=	0x008e
                           00008D   461 _TF0	=	0x008d
                           00008C   462 _TR0	=	0x008c
                           00008B   463 _IE1	=	0x008b
                           00008A   464 _IT1	=	0x008a
                           000089   465 _IE0	=	0x0089
                           000088   466 _IT0	=	0x0088
                           00009F   467 _SM0	=	0x009f
                           00009E   468 _SM1	=	0x009e
                           00009D   469 _SM2	=	0x009d
                           00009C   470 _REN	=	0x009c
                           00009B   471 _TB8	=	0x009b
                           00009A   472 _RB8	=	0x009a
                           000099   473 _TI	=	0x0099
                           000098   474 _RI	=	0x0098
                           0000DF   475 _CF	=	0x00df
                           0000DE   476 _CR	=	0x00de
                           0000DA   477 _CCF2	=	0x00da
                           0000D9   478 _CCF1	=	0x00d9
                           0000D8   479 _CCF0	=	0x00d8
                                    480 ;--------------------------------------------------------
                                    481 ; overlayable register banks
                                    482 ;--------------------------------------------------------
                                    483 	.area REG_BANK_0	(REL,OVR,DATA)
      000000                        484 	.ds 8
                                    485 ;--------------------------------------------------------
                                    486 ; internal ram data
                                    487 ;--------------------------------------------------------
                                    488 	.area DSEG    (DATA)
      00003D                        489 _MUTE_STATUS::
      00003D                        490 	.ds 1
      00003E                        491 _RDA5807M_Write_Reg_PARM_2:
      00003E                        492 	.ds 2
      000040                        493 _RDA5807M_Write_Reg_Buf_10000_43:
      000040                        494 	.ds 2
      000042                        495 _RDA5807M_Read_Reg_Buf_10000_45:
      000042                        496 	.ds 2
      000044                        497 _RDA5807M_FreqToChan_End_10000_49:
      000044                        498 	.ds 2
      000046                        499 _RDA5807M_ChanToFreq_End_10000_57:
      000046                        500 	.ds 2
                                    501 ;--------------------------------------------------------
                                    502 ; overlayable items in internal ram
                                    503 ;--------------------------------------------------------
                                    504 ;--------------------------------------------------------
                                    505 ; indirectly addressable internal ram data
                                    506 ;--------------------------------------------------------
                                    507 	.area ISEG    (DATA)
                                    508 ;--------------------------------------------------------
                                    509 ; absolute internal ram data
                                    510 ;--------------------------------------------------------
                                    511 	.area IABS    (ABS,DATA)
                                    512 	.area IABS    (ABS,DATA)
                                    513 ;--------------------------------------------------------
                                    514 ; bit data
                                    515 ;--------------------------------------------------------
                                    516 	.area BSEG    (BIT)
                                    517 ;--------------------------------------------------------
                                    518 ; paged external ram data
                                    519 ;--------------------------------------------------------
                                    520 	.area PSEG    (PAG,XDATA)
                                    521 ;--------------------------------------------------------
                                    522 ; uninitialized external ram data
                                    523 ;--------------------------------------------------------
                                    524 	.area XSEG    (XDATA)
                                    525 ;--------------------------------------------------------
                                    526 ; absolute external ram data
                                    527 ;--------------------------------------------------------
                                    528 	.area XABS    (ABS,XDATA)
                                    529 ;--------------------------------------------------------
                                    530 ; initialized external ram data
                                    531 ;--------------------------------------------------------
                                    532 	.area XISEG   (XDATA)
                                    533 	.area HOME    (CODE)
                                    534 	.area GSINIT0 (CODE)
                                    535 	.area GSINIT1 (CODE)
                                    536 	.area GSINIT2 (CODE)
                                    537 	.area GSINIT3 (CODE)
                                    538 	.area GSINIT4 (CODE)
                                    539 	.area GSINIT5 (CODE)
                                    540 	.area GSINIT  (CODE)
                                    541 	.area GSFINAL (CODE)
                                    542 	.area CSEG    (CODE)
                                    543 ;--------------------------------------------------------
                                    544 ; global & static initialisations
                                    545 ;--------------------------------------------------------
                                    546 	.area HOME    (CODE)
                                    547 	.area GSINIT  (CODE)
                                    548 	.area GSFINAL (CODE)
                                    549 	.area GSINIT  (CODE)
                                    550 ;	code/rda5807/RDA5807M.c:9: uint8_t MUTE_STATUS = 0;
      00013A 75 3D 00         [24]  551 	mov	_MUTE_STATUS,#0x00
                                    552 ;--------------------------------------------------------
                                    553 ; Home
                                    554 ;--------------------------------------------------------
                                    555 	.area HOME    (CODE)
                                    556 	.area HOME    (CODE)
                                    557 ;--------------------------------------------------------
                                    558 ; code
                                    559 ;--------------------------------------------------------
                                    560 	.area CSEG    (CODE)
                                    561 ;------------------------------------------------------------
                                    562 ;Allocation info for local variables in function 'RDA5807M_Write_Reg'
                                    563 ;------------------------------------------------------------
                                    564 ;Data          Allocated with name '_RDA5807M_Write_Reg_PARM_2'
                                    565 ;Address       Allocated to registers r7 
                                    566 ;Buf           Allocated with name '_RDA5807M_Write_Reg_Buf_10000_43'
                                    567 ;------------------------------------------------------------
                                    568 ;	code/rda5807/RDA5807M.c:14: void RDA5807M_Write_Reg(uint8_t Address, uint16_t Data)
                                    569 ;	-----------------------------------------
                                    570 ;	 function RDA5807M_Write_Reg
                                    571 ;	-----------------------------------------
      000A7C                        572 _RDA5807M_Write_Reg:
                           000007   573 	ar7 = 0x07
                           000006   574 	ar6 = 0x06
                           000005   575 	ar5 = 0x05
                           000004   576 	ar4 = 0x04
                           000003   577 	ar3 = 0x03
                           000002   578 	ar2 = 0x02
                           000001   579 	ar1 = 0x01
                           000000   580 	ar0 = 0x00
      000A7C AF 82            [24]  581 	mov	r7, dpl
                                    582 ;	code/rda5807/RDA5807M.c:16: uint8_t Buf[2] = {0};
      000A7E 75 40 00         [24]  583 	mov	_RDA5807M_Write_Reg_Buf_10000_43,#0x00
      000A81 75 41 00         [24]  584 	mov	(_RDA5807M_Write_Reg_Buf_10000_43 + 0x0001),#0x00
                                    585 ;	code/rda5807/RDA5807M.c:17: Buf[0] = (Data & 0xff00) >> 8; // 高位
      000A84 AE 3F            [24]  586 	mov	r6,(_RDA5807M_Write_Reg_PARM_2 + 1)
      000A86 8E 05            [24]  587 	mov	ar5,r6
      000A88 8D 40            [24]  588 	mov	_RDA5807M_Write_Reg_Buf_10000_43,r5
                                    589 ;	code/rda5807/RDA5807M.c:18: Buf[1] = Data & 0x00ff;        // 低位
      000A8A AE 3E            [24]  590 	mov	r6,_RDA5807M_Write_Reg_PARM_2
      000A8C 8E 41            [24]  591 	mov	(_RDA5807M_Write_Reg_Buf_10000_43 + 0x0001),r6
                                    592 ;	code/rda5807/RDA5807M.c:20: I2C_Start();
      000A8E C0 07            [24]  593 	push	ar7
      000A90 12 09 BD         [24]  594 	lcall	_I2C_Start
                                    595 ;	code/rda5807/RDA5807M.c:21: I2C_SendByte(0x22);
      000A93 75 82 22         [24]  596 	mov	dpl, #0x22
      000A96 12 0A 00         [24]  597 	lcall	_I2C_SendByte
      000A99 D0 07            [24]  598 	pop	ar7
                                    599 ;	code/rda5807/RDA5807M.c:22: I2C_SendByte(Address);
      000A9B 8F 82            [24]  600 	mov	dpl, r7
      000A9D 12 0A 00         [24]  601 	lcall	_I2C_SendByte
                                    602 ;	code/rda5807/RDA5807M.c:23: I2C_SendByte(Buf[0]);
      000AA0 85 40 82         [24]  603 	mov	dpl,_RDA5807M_Write_Reg_Buf_10000_43
      000AA3 12 0A 00         [24]  604 	lcall	_I2C_SendByte
                                    605 ;	code/rda5807/RDA5807M.c:24: I2C_SendByte(Buf[1]);
      000AA6 85 41 82         [24]  606 	mov	dpl,(_RDA5807M_Write_Reg_Buf_10000_43 + 0x0001)
      000AA9 12 0A 00         [24]  607 	lcall	_I2C_SendByte
                                    608 ;	code/rda5807/RDA5807M.c:25: I2C_End();
                                    609 ;	code/rda5807/RDA5807M.c:26: }
      000AAC 02 09 CC         [24]  610 	ljmp	_I2C_End
                                    611 ;------------------------------------------------------------
                                    612 ;Allocation info for local variables in function 'RDA5807M_Read_Reg'
                                    613 ;------------------------------------------------------------
                                    614 ;Address       Allocated to registers r7 
                                    615 ;Buf           Allocated with name '_RDA5807M_Read_Reg_Buf_10000_45'
                                    616 ;------------------------------------------------------------
                                    617 ;	code/rda5807/RDA5807M.c:33: uint16_t RDA5807M_Read_Reg(uint8_t Address)
                                    618 ;	-----------------------------------------
                                    619 ;	 function RDA5807M_Read_Reg
                                    620 ;	-----------------------------------------
      000AAF                        621 _RDA5807M_Read_Reg:
      000AAF AF 82            [24]  622 	mov	r7, dpl
                                    623 ;	code/rda5807/RDA5807M.c:35: uint8_t Buf[2] = {0};
      000AB1 75 42 00         [24]  624 	mov	_RDA5807M_Read_Reg_Buf_10000_45,#0x00
      000AB4 75 43 00         [24]  625 	mov	(_RDA5807M_Read_Reg_Buf_10000_45 + 0x0001),#0x00
                                    626 ;	code/rda5807/RDA5807M.c:37: I2C_Start();
      000AB7 C0 07            [24]  627 	push	ar7
      000AB9 12 09 BD         [24]  628 	lcall	_I2C_Start
                                    629 ;	code/rda5807/RDA5807M.c:38: I2C_SendByte(0x22);
      000ABC 75 82 22         [24]  630 	mov	dpl, #0x22
      000ABF 12 0A 00         [24]  631 	lcall	_I2C_SendByte
      000AC2 D0 07            [24]  632 	pop	ar7
                                    633 ;	code/rda5807/RDA5807M.c:39: I2C_SendByte(Address);
      000AC4 8F 82            [24]  634 	mov	dpl, r7
      000AC6 12 0A 00         [24]  635 	lcall	_I2C_SendByte
                                    636 ;	code/rda5807/RDA5807M.c:40: I2C_Start();
      000AC9 12 09 BD         [24]  637 	lcall	_I2C_Start
                                    638 ;	code/rda5807/RDA5807M.c:41: I2C_SendByte(0x23);
      000ACC 75 82 23         [24]  639 	mov	dpl, #0x23
      000ACF 12 0A 00         [24]  640 	lcall	_I2C_SendByte
                                    641 ;	code/rda5807/RDA5807M.c:42: Buf[0] = I2C_ReadByte(0);
      000AD2 75 82 00         [24]  642 	mov	dpl, #0x00
      000AD5 12 0A 37         [24]  643 	lcall	_I2C_ReadByte
      000AD8 E5 82            [12]  644 	mov	a, dpl
      000ADA F5 42            [12]  645 	mov	_RDA5807M_Read_Reg_Buf_10000_45,a
                                    646 ;	code/rda5807/RDA5807M.c:43: Buf[1] = I2C_ReadByte(1);
      000ADC 75 82 01         [24]  647 	mov	dpl, #0x01
      000ADF 12 0A 37         [24]  648 	lcall	_I2C_ReadByte
      000AE2 E5 82            [12]  649 	mov	a, dpl
      000AE4 F5 43            [12]  650 	mov	(_RDA5807M_Read_Reg_Buf_10000_45 + 0x0001),a
                                    651 ;	code/rda5807/RDA5807M.c:44: I2C_End();
      000AE6 12 09 CC         [24]  652 	lcall	_I2C_End
                                    653 ;	code/rda5807/RDA5807M.c:46: return ((Buf[0] << 8) | Buf[1]);
      000AE9 AF 42            [24]  654 	mov	r7,_RDA5807M_Read_Reg_Buf_10000_45
      000AEB 7E 00            [12]  655 	mov	r6,#0x00
      000AED AC 43            [24]  656 	mov	r4,(_RDA5807M_Read_Reg_Buf_10000_45 + 0x0001)
      000AEF 7D 00            [12]  657 	mov	r5,#0x00
      000AF1 EC               [12]  658 	mov	a,r4
      000AF2 42 06            [12]  659 	orl	ar6,a
      000AF4 ED               [12]  660 	mov	a,r5
      000AF5 42 07            [12]  661 	orl	ar7,a
      000AF7 8E 82            [24]  662 	mov	dpl,r6
      000AF9 8F 83            [24]  663 	mov	dph,r7
                                    664 ;	code/rda5807/RDA5807M.c:47: }
      000AFB 22               [24]  665 	ret
                                    666 ;------------------------------------------------------------
                                    667 ;Allocation info for local variables in function 'RDA5807M_init'
                                    668 ;------------------------------------------------------------
                                    669 ;	code/rda5807/RDA5807M.c:53: void RDA5807M_init(void)
                                    670 ;	-----------------------------------------
                                    671 ;	 function RDA5807M_init
                                    672 ;	-----------------------------------------
      000AFC                        673 _RDA5807M_init:
                                    674 ;	code/rda5807/RDA5807M.c:55: RDA5807M_Write_Reg(0x02, 0xC001); // Power Up, DHIZ=1, MUTE=0, ENABLE=1
      000AFC 75 3E 01         [24]  675 	mov	_RDA5807M_Write_Reg_PARM_2,#0x01
      000AFF 75 3F C0         [24]  676 	mov	(_RDA5807M_Write_Reg_PARM_2 + 1),#0xc0
      000B02 75 82 02         [24]  677 	mov	dpl, #0x02
      000B05 12 0A 7C         [24]  678 	lcall	_RDA5807M_Write_Reg
                                    679 ;	code/rda5807/RDA5807M.c:56: Delay(600);
      000B08 90 02 58         [24]  680 	mov	dptr,#0x0258
      000B0B 12 05 BB         [24]  681 	lcall	_Delay
                                    682 ;	code/rda5807/RDA5807M.c:57: RDA5807M_Write_Reg(0x02, 0x0002); // Soft reset
      000B0E 75 3E 02         [24]  683 	mov	_RDA5807M_Write_Reg_PARM_2,#0x02
      000B11 75 3F 00         [24]  684 	mov	(_RDA5807M_Write_Reg_PARM_2 + 1),#0x00
      000B14 75 82 02         [24]  685 	mov	dpl, #0x02
      000B17 12 0A 7C         [24]  686 	lcall	_RDA5807M_Write_Reg
                                    687 ;	code/rda5807/RDA5807M.c:58: Delay(50);
      000B1A 90 00 32         [24]  688 	mov	dptr,#0x0032
      000B1D 12 05 BB         [24]  689 	lcall	_Delay
                                    690 ;	code/rda5807/RDA5807M.c:61: RDA5807M_Write_Reg(0x02, 0xC00D); // Power Up again, DHIZ=1, DMUTE=1, ENABLE=1
      000B20 75 3E 0D         [24]  691 	mov	_RDA5807M_Write_Reg_PARM_2,#0x0d
      000B23 75 3F C0         [24]  692 	mov	(_RDA5807M_Write_Reg_PARM_2 + 1),#0xc0
      000B26 75 82 02         [24]  693 	mov	dpl, #0x02
      000B29 12 0A 7C         [24]  694 	lcall	_RDA5807M_Write_Reg
                                    695 ;	code/rda5807/RDA5807M.c:62: Delay(50);
      000B2C 90 00 32         [24]  696 	mov	dptr,#0x0032
      000B2F 12 05 BB         [24]  697 	lcall	_Delay
                                    698 ;	code/rda5807/RDA5807M.c:63: RDA5807M_Write_Reg(0x03, 0x0018); // space 00 100kHz band 10 76-108MHz
      000B32 75 3E 18         [24]  699 	mov	_RDA5807M_Write_Reg_PARM_2,#0x18
      000B35 75 3F 00         [24]  700 	mov	(_RDA5807M_Write_Reg_PARM_2 + 1),#0x00
      000B38 75 82 03         [24]  701 	mov	dpl, #0x03
      000B3B 12 0A 7C         [24]  702 	lcall	_RDA5807M_Write_Reg
                                    703 ;	code/rda5807/RDA5807M.c:64: RDA5807M_Write_Reg(0x04, 0x0400);
      000B3E 75 3E 00         [24]  704 	mov	_RDA5807M_Write_Reg_PARM_2,#0x00
      000B41 75 3F 04         [24]  705 	mov	(_RDA5807M_Write_Reg_PARM_2 + 1),#0x04
      000B44 75 82 04         [24]  706 	mov	dpl, #0x04
      000B47 12 0A 7C         [24]  707 	lcall	_RDA5807M_Write_Reg
                                    708 ;	code/rda5807/RDA5807M.c:65: RDA5807M_Write_Reg(0x05, 0x86a5); // seek SNR 0110  --> 6  VOLUME 0101 -->5
      000B4A 75 3E A5         [24]  709 	mov	_RDA5807M_Write_Reg_PARM_2,#0xa5
      000B4D 75 3F 86         [24]  710 	mov	(_RDA5807M_Write_Reg_PARM_2 + 1),#0x86
      000B50 75 82 05         [24]  711 	mov	dpl, #0x05
      000B53 12 0A 7C         [24]  712 	lcall	_RDA5807M_Write_Reg
                                    713 ;	code/rda5807/RDA5807M.c:66: RDA5807M_Write_Reg(0x06, 0x8000);
      000B56 75 3E 00         [24]  714 	mov	_RDA5807M_Write_Reg_PARM_2,#0x00
      000B59 75 3F 80         [24]  715 	mov	(_RDA5807M_Write_Reg_PARM_2 + 1),#0x80
      000B5C 75 82 06         [24]  716 	mov	dpl, #0x06
      000B5F 12 0A 7C         [24]  717 	lcall	_RDA5807M_Write_Reg
                                    718 ;	code/rda5807/RDA5807M.c:67: RDA5807M_Write_Reg(0x07, 0x5F1A);
      000B62 75 3E 1A         [24]  719 	mov	_RDA5807M_Write_Reg_PARM_2,#0x1a
      000B65 75 3F 5F         [24]  720 	mov	(_RDA5807M_Write_Reg_PARM_2 + 1),#0x5f
      000B68 75 82 07         [24]  721 	mov	dpl, #0x07
      000B6B 12 0A 7C         [24]  722 	lcall	_RDA5807M_Write_Reg
                                    723 ;	code/rda5807/RDA5807M.c:68: RDA5807M_SetMUTE(0);
      000B6E 75 82 00         [24]  724 	mov	dpl, #0x00
                                    725 ;	code/rda5807/RDA5807M.c:69: }
      000B71 02 10 5C         [24]  726 	ljmp	_RDA5807M_SetMUTE
                                    727 ;------------------------------------------------------------
                                    728 ;Allocation info for local variables in function 'RDA5807M_FreqToChan'
                                    729 ;------------------------------------------------------------
                                    730 ;Freq          Allocated to registers r6 r7 
                                    731 ;Start         Allocated to registers r3 r5 
                                    732 ;End           Allocated with name '_RDA5807M_FreqToChan_End_10000_49'
                                    733 ;Space         Allocated to registers r2 r4 
                                    734 ;band          Allocated to registers r0 
                                    735 ;------------------------------------------------------------
                                    736 ;	code/rda5807/RDA5807M.c:78: uint16_t RDA5807M_FreqToChan(uint16_t Freq)
                                    737 ;	-----------------------------------------
                                    738 ;	 function RDA5807M_FreqToChan
                                    739 ;	-----------------------------------------
      000B74                        740 _RDA5807M_FreqToChan:
      000B74 AE 82            [24]  741 	mov	r6, dpl
      000B76 AF 83            [24]  742 	mov	r7, dph
                                    743 ;	code/rda5807/RDA5807M.c:85: band = (RDA5807M_Read_Reg(0x03) & 0x000C) >> 2; // 0x03的3，2位（band）
      000B78 75 82 03         [24]  744 	mov	dpl, #0x03
      000B7B C0 07            [24]  745 	push	ar7
      000B7D C0 06            [24]  746 	push	ar6
      000B7F 12 0A AF         [24]  747 	lcall	_RDA5807M_Read_Reg
      000B82 AC 82            [24]  748 	mov	r4, dpl
      000B84 D0 06            [24]  749 	pop	ar6
      000B86 D0 07            [24]  750 	pop	ar7
      000B88 53 04 0C         [24]  751 	anl	ar4,#0x0c
      000B8B E4               [12]  752 	clr	a
      000B8C C3               [12]  753 	clr	c
      000B8D 13               [12]  754 	rrc	a
      000B8E CC               [12]  755 	xch	a,r4
      000B8F 13               [12]  756 	rrc	a
      000B90 CC               [12]  757 	xch	a,r4
      000B91 C3               [12]  758 	clr	c
      000B92 13               [12]  759 	rrc	a
      000B93 CC               [12]  760 	xch	a,r4
      000B94 13               [12]  761 	rrc	a
      000B95 CC               [12]  762 	xch	a,r4
                                    763 ;	code/rda5807/RDA5807M.c:87: if (band == 0 /*0b00*/)
      000B96 EC               [12]  764 	mov	a,r4
      000B97 70 0C            [24]  765 	jnz	00114$
                                    766 ;	code/rda5807/RDA5807M.c:89: Start = 8700;
      000B99 7B FC            [12]  767 	mov	r3,#0xfc
      000B9B 7D 21            [12]  768 	mov	r5,#0x21
                                    769 ;	code/rda5807/RDA5807M.c:90: End = 10800;
      000B9D 75 44 30         [24]  770 	mov	_RDA5807M_FreqToChan_End_10000_49,#0x30
      000BA0 75 45 2A         [24]  771 	mov	(_RDA5807M_FreqToChan_End_10000_49 + 1),#0x2a
      000BA3 80 53            [24]  772 	sjmp	00115$
      000BA5                        773 00114$:
                                    774 ;	code/rda5807/RDA5807M.c:92: else if (band == 1 /*0b01*/)
      000BA5 BC 01 0C         [24]  775 	cjne	r4,#0x01,00111$
                                    776 ;	code/rda5807/RDA5807M.c:94: Start = 7600;
      000BA8 7B B0            [12]  777 	mov	r3,#0xb0
      000BAA 7D 1D            [12]  778 	mov	r5,#0x1d
                                    779 ;	code/rda5807/RDA5807M.c:95: End = 9100;
      000BAC 75 44 8C         [24]  780 	mov	_RDA5807M_FreqToChan_End_10000_49,#0x8c
      000BAF 75 45 23         [24]  781 	mov	(_RDA5807M_FreqToChan_End_10000_49 + 1),#0x23
      000BB2 80 44            [24]  782 	sjmp	00115$
      000BB4                        783 00111$:
                                    784 ;	code/rda5807/RDA5807M.c:97: else if (band == 2 /*0b10*/)
      000BB4 BC 02 0C         [24]  785 	cjne	r4,#0x02,00108$
                                    786 ;	code/rda5807/RDA5807M.c:99: Start = 7600;
      000BB7 7B B0            [12]  787 	mov	r3,#0xb0
      000BB9 7D 1D            [12]  788 	mov	r5,#0x1d
                                    789 ;	code/rda5807/RDA5807M.c:100: End = 10800;
      000BBB 75 44 30         [24]  790 	mov	_RDA5807M_FreqToChan_End_10000_49,#0x30
      000BBE 75 45 2A         [24]  791 	mov	(_RDA5807M_FreqToChan_End_10000_49 + 1),#0x2a
      000BC1 80 35            [24]  792 	sjmp	00115$
      000BC3                        793 00108$:
                                    794 ;	code/rda5807/RDA5807M.c:102: else if (band == 3 /*0b11*/)
      000BC3 BC 03 2E         [24]  795 	cjne	r4,#0x03,00105$
                                    796 ;	code/rda5807/RDA5807M.c:104: if ((RDA5807M_Read_Reg(0x07) >> 9) & 0x01)
      000BC6 75 82 07         [24]  797 	mov	dpl, #0x07
      000BC9 C0 07            [24]  798 	push	ar7
      000BCB C0 06            [24]  799 	push	ar6
      000BCD 12 0A AF         [24]  800 	lcall	_RDA5807M_Read_Reg
      000BD0 AC 83            [24]  801 	mov	r4, dph
      000BD2 D0 06            [24]  802 	pop	ar6
      000BD4 D0 07            [24]  803 	pop	ar7
      000BD6 EC               [12]  804 	mov	a,r4
      000BD7 03               [12]  805 	rr	a
      000BD8 54 01            [12]  806 	anl	a,#0x01
      000BDA 60 0C            [24]  807 	jz	00102$
                                    808 ;	code/rda5807/RDA5807M.c:106: Start = 6500;
      000BDC 7B 64            [12]  809 	mov	r3,#0x64
      000BDE 7D 19            [12]  810 	mov	r5,#0x19
                                    811 ;	code/rda5807/RDA5807M.c:107: End = 7600;
      000BE0 75 44 B0         [24]  812 	mov	_RDA5807M_FreqToChan_End_10000_49,#0xb0
      000BE3 75 45 1D         [24]  813 	mov	(_RDA5807M_FreqToChan_End_10000_49 + 1),#0x1d
      000BE6 80 10            [24]  814 	sjmp	00115$
      000BE8                        815 00102$:
                                    816 ;	code/rda5807/RDA5807M.c:111: Start = 5000;
      000BE8 7B 88            [12]  817 	mov	r3,#0x88
      000BEA 7D 13            [12]  818 	mov	r5,#0x13
                                    819 ;	code/rda5807/RDA5807M.c:112: End = 7600;
      000BEC 75 44 B0         [24]  820 	mov	_RDA5807M_FreqToChan_End_10000_49,#0xb0
      000BEF 75 45 1D         [24]  821 	mov	(_RDA5807M_FreqToChan_End_10000_49 + 1),#0x1d
      000BF2 80 04            [24]  822 	sjmp	00115$
      000BF4                        823 00105$:
                                    824 ;	code/rda5807/RDA5807M.c:116: return 0;
      000BF4 90 00 00         [24]  825 	mov	dptr,#0x0000
      000BF7 22               [24]  826 	ret
      000BF8                        827 00115$:
                                    828 ;	code/rda5807/RDA5807M.c:118: band = (RDA5807M_Read_Reg(0x03) & 0x0003);
      000BF8 75 82 03         [24]  829 	mov	dpl, #0x03
      000BFB C0 07            [24]  830 	push	ar7
      000BFD C0 06            [24]  831 	push	ar6
      000BFF C0 05            [24]  832 	push	ar5
      000C01 C0 03            [24]  833 	push	ar3
      000C03 12 0A AF         [24]  834 	lcall	_RDA5807M_Read_Reg
      000C06 A8 82            [24]  835 	mov	r0, dpl
      000C08 D0 03            [24]  836 	pop	ar3
      000C0A D0 05            [24]  837 	pop	ar5
      000C0C D0 06            [24]  838 	pop	ar6
      000C0E D0 07            [24]  839 	pop	ar7
      000C10 53 00 03         [24]  840 	anl	ar0,#0x03
                                    841 ;	code/rda5807/RDA5807M.c:120: if (band == 0 /*0b00*/)
      000C13 E8               [12]  842 	mov	a,r0
                                    843 ;	code/rda5807/RDA5807M.c:121: Space = 10;
      000C14 70 05            [24]  844 	jnz	00126$
      000C16 7A 0A            [12]  845 	mov	r2,#0x0a
      000C18 FC               [12]  846 	mov	r4,a
      000C19 80 1F            [24]  847 	sjmp	00127$
      000C1B                        848 00126$:
                                    849 ;	code/rda5807/RDA5807M.c:122: else if (band == 1 /*0b01*/)
      000C1B B8 01 06         [24]  850 	cjne	r0,#0x01,00123$
                                    851 ;	code/rda5807/RDA5807M.c:123: Space = 20;
      000C1E 7A 14            [12]  852 	mov	r2,#0x14
      000C20 7C 00            [12]  853 	mov	r4,#0x00
      000C22 80 16            [24]  854 	sjmp	00127$
      000C24                        855 00123$:
                                    856 ;	code/rda5807/RDA5807M.c:124: else if (band == 2 /*0b10*/)
      000C24 B8 02 06         [24]  857 	cjne	r0,#0x02,00120$
                                    858 ;	code/rda5807/RDA5807M.c:125: Space = 5;
      000C27 7A 05            [12]  859 	mov	r2,#0x05
      000C29 7C 00            [12]  860 	mov	r4,#0x00
      000C2B 80 0D            [24]  861 	sjmp	00127$
      000C2D                        862 00120$:
                                    863 ;	code/rda5807/RDA5807M.c:126: else if (band == 3 /*0b11*/)
      000C2D B8 03 06         [24]  864 	cjne	r0,#0x03,00117$
                                    865 ;	code/rda5807/RDA5807M.c:127: Space = 2;
      000C30 7A 02            [12]  866 	mov	r2,#0x02
      000C32 7C 00            [12]  867 	mov	r4,#0x00
      000C34 80 04            [24]  868 	sjmp	00127$
      000C36                        869 00117$:
                                    870 ;	code/rda5807/RDA5807M.c:129: return 0;
      000C36 90 00 00         [24]  871 	mov	dptr,#0x0000
      000C39 22               [24]  872 	ret
      000C3A                        873 00127$:
                                    874 ;	code/rda5807/RDA5807M.c:131: if (Freq < Start)
      000C3A C3               [12]  875 	clr	c
      000C3B EE               [12]  876 	mov	a,r6
      000C3C 9B               [12]  877 	subb	a,r3
      000C3D EF               [12]  878 	mov	a,r7
      000C3E 9D               [12]  879 	subb	a,r5
      000C3F 50 04            [24]  880 	jnc	00129$
                                    881 ;	code/rda5807/RDA5807M.c:132: return 0;
      000C41 90 00 00         [24]  882 	mov	dptr,#0x0000
      000C44 22               [24]  883 	ret
      000C45                        884 00129$:
                                    885 ;	code/rda5807/RDA5807M.c:133: if (Freq > End)
      000C45 C3               [12]  886 	clr	c
      000C46 E5 44            [12]  887 	mov	a,_RDA5807M_FreqToChan_End_10000_49
      000C48 9E               [12]  888 	subb	a,r6
      000C49 E5 45            [12]  889 	mov	a,(_RDA5807M_FreqToChan_End_10000_49 + 1)
      000C4B 9F               [12]  890 	subb	a,r7
      000C4C 50 04            [24]  891 	jnc	00131$
                                    892 ;	code/rda5807/RDA5807M.c:134: return 0;
      000C4E 90 00 00         [24]  893 	mov	dptr,#0x0000
      000C51 22               [24]  894 	ret
      000C52                        895 00131$:
                                    896 ;	code/rda5807/RDA5807M.c:136: return ((Freq - Start) / Space);
      000C52 EE               [12]  897 	mov	a,r6
      000C53 C3               [12]  898 	clr	c
      000C54 9B               [12]  899 	subb	a,r3
      000C55 F5 82            [12]  900 	mov	dpl,a
      000C57 EF               [12]  901 	mov	a,r7
      000C58 9D               [12]  902 	subb	a,r5
      000C59 F5 83            [12]  903 	mov	dph,a
      000C5B 8A 1E            [24]  904 	mov	__divuint_PARM_2,r2
      000C5D 8C 1F            [24]  905 	mov	(__divuint_PARM_2 + 1),r4
                                    906 ;	code/rda5807/RDA5807M.c:137: }
      000C5F 02 12 43         [24]  907 	ljmp	__divuint
                                    908 ;------------------------------------------------------------
                                    909 ;Allocation info for local variables in function 'RDA5807M_ChanToFreq'
                                    910 ;------------------------------------------------------------
                                    911 ;Chan          Allocated to registers r6 r7 
                                    912 ;Start         Allocated to registers r2 r3 
                                    913 ;End           Allocated with name '_RDA5807M_ChanToFreq_End_10000_57'
                                    914 ;Space         Allocated to registers r0 r1 
                                    915 ;band          Allocated to registers r4 r5 
                                    916 ;------------------------------------------------------------
                                    917 ;	code/rda5807/RDA5807M.c:145: uint16_t RDA5807M_ChanToFreq(uint16_t Chan)
                                    918 ;	-----------------------------------------
                                    919 ;	 function RDA5807M_ChanToFreq
                                    920 ;	-----------------------------------------
      000C62                        921 _RDA5807M_ChanToFreq:
      000C62 AE 82            [24]  922 	mov	r6, dpl
      000C64 AF 83            [24]  923 	mov	r7, dph
                                    924 ;	code/rda5807/RDA5807M.c:151: band = (RDA5807M_Read_Reg(0x03) & 0x000C) >> 2; // 0x03的3，2位（波段）
      000C66 75 82 03         [24]  925 	mov	dpl, #0x03
      000C69 C0 07            [24]  926 	push	ar7
      000C6B C0 06            [24]  927 	push	ar6
      000C6D 12 0A AF         [24]  928 	lcall	_RDA5807M_Read_Reg
      000C70 AC 82            [24]  929 	mov	r4, dpl
      000C72 D0 06            [24]  930 	pop	ar6
      000C74 D0 07            [24]  931 	pop	ar7
      000C76 53 04 0C         [24]  932 	anl	ar4,#0x0c
      000C79 E4               [12]  933 	clr	a
      000C7A C3               [12]  934 	clr	c
      000C7B 13               [12]  935 	rrc	a
      000C7C CC               [12]  936 	xch	a,r4
      000C7D 13               [12]  937 	rrc	a
      000C7E CC               [12]  938 	xch	a,r4
      000C7F C3               [12]  939 	clr	c
      000C80 13               [12]  940 	rrc	a
      000C81 CC               [12]  941 	xch	a,r4
      000C82 13               [12]  942 	rrc	a
      000C83 CC               [12]  943 	xch	a,r4
                                    944 ;	code/rda5807/RDA5807M.c:153: if (band == 0 /*0b00*/)
      000C84 4C               [12]  945 	orl	a,r4
      000C85 70 0C            [24]  946 	jnz	00114$
                                    947 ;	code/rda5807/RDA5807M.c:155: Start = 8700;
      000C87 7A FC            [12]  948 	mov	r2,#0xfc
      000C89 7B 21            [12]  949 	mov	r3,#0x21
                                    950 ;	code/rda5807/RDA5807M.c:156: End = 10800;
      000C8B 75 46 30         [24]  951 	mov	_RDA5807M_ChanToFreq_End_10000_57,#0x30
      000C8E 75 47 2A         [24]  952 	mov	(_RDA5807M_ChanToFreq_End_10000_57 + 1),#0x2a
      000C91 80 53            [24]  953 	sjmp	00115$
      000C93                        954 00114$:
                                    955 ;	code/rda5807/RDA5807M.c:158: else if (band == 1 /*0b01*/)
      000C93 BC 01 0C         [24]  956 	cjne	r4,#0x01,00111$
                                    957 ;	code/rda5807/RDA5807M.c:160: Start = 7600;
      000C96 7A B0            [12]  958 	mov	r2,#0xb0
      000C98 7B 1D            [12]  959 	mov	r3,#0x1d
                                    960 ;	code/rda5807/RDA5807M.c:161: End = 9100;
      000C9A 75 46 8C         [24]  961 	mov	_RDA5807M_ChanToFreq_End_10000_57,#0x8c
      000C9D 75 47 23         [24]  962 	mov	(_RDA5807M_ChanToFreq_End_10000_57 + 1),#0x23
      000CA0 80 44            [24]  963 	sjmp	00115$
      000CA2                        964 00111$:
                                    965 ;	code/rda5807/RDA5807M.c:163: else if (band == 2 /*0b10*/)
      000CA2 BC 02 0C         [24]  966 	cjne	r4,#0x02,00108$
                                    967 ;	code/rda5807/RDA5807M.c:165: Start = 7600;
      000CA5 7A B0            [12]  968 	mov	r2,#0xb0
      000CA7 7B 1D            [12]  969 	mov	r3,#0x1d
                                    970 ;	code/rda5807/RDA5807M.c:166: End = 10800;
      000CA9 75 46 30         [24]  971 	mov	_RDA5807M_ChanToFreq_End_10000_57,#0x30
      000CAC 75 47 2A         [24]  972 	mov	(_RDA5807M_ChanToFreq_End_10000_57 + 1),#0x2a
      000CAF 80 35            [24]  973 	sjmp	00115$
      000CB1                        974 00108$:
                                    975 ;	code/rda5807/RDA5807M.c:168: else if (band == 3 /*0b11*/)
      000CB1 BC 03 2E         [24]  976 	cjne	r4,#0x03,00105$
                                    977 ;	code/rda5807/RDA5807M.c:170: if ((RDA5807M_Read_Reg(0x07) >> 9) & 0x01)
      000CB4 75 82 07         [24]  978 	mov	dpl, #0x07
      000CB7 C0 07            [24]  979 	push	ar7
      000CB9 C0 06            [24]  980 	push	ar6
      000CBB 12 0A AF         [24]  981 	lcall	_RDA5807M_Read_Reg
      000CBE AD 83            [24]  982 	mov	r5, dph
      000CC0 D0 06            [24]  983 	pop	ar6
      000CC2 D0 07            [24]  984 	pop	ar7
      000CC4 ED               [12]  985 	mov	a,r5
      000CC5 03               [12]  986 	rr	a
      000CC6 54 01            [12]  987 	anl	a,#0x01
      000CC8 60 0C            [24]  988 	jz	00102$
                                    989 ;	code/rda5807/RDA5807M.c:172: Start = 6500;
      000CCA 7A 64            [12]  990 	mov	r2,#0x64
      000CCC 7B 19            [12]  991 	mov	r3,#0x19
                                    992 ;	code/rda5807/RDA5807M.c:173: End = 7600;
      000CCE 75 46 B0         [24]  993 	mov	_RDA5807M_ChanToFreq_End_10000_57,#0xb0
      000CD1 75 47 1D         [24]  994 	mov	(_RDA5807M_ChanToFreq_End_10000_57 + 1),#0x1d
      000CD4 80 10            [24]  995 	sjmp	00115$
      000CD6                        996 00102$:
                                    997 ;	code/rda5807/RDA5807M.c:177: Start = 5000;
      000CD6 7A 88            [12]  998 	mov	r2,#0x88
      000CD8 7B 13            [12]  999 	mov	r3,#0x13
                                   1000 ;	code/rda5807/RDA5807M.c:178: End = 7600;
      000CDA 75 46 B0         [24] 1001 	mov	_RDA5807M_ChanToFreq_End_10000_57,#0xb0
      000CDD 75 47 1D         [24] 1002 	mov	(_RDA5807M_ChanToFreq_End_10000_57 + 1),#0x1d
      000CE0 80 04            [24] 1003 	sjmp	00115$
      000CE2                       1004 00105$:
                                   1005 ;	code/rda5807/RDA5807M.c:182: return 0;
      000CE2 90 00 00         [24] 1006 	mov	dptr,#0x0000
      000CE5 22               [24] 1007 	ret
      000CE6                       1008 00115$:
                                   1009 ;	code/rda5807/RDA5807M.c:184: band = (RDA5807M_Read_Reg(0x03) & 0x0003);
      000CE6 75 82 03         [24] 1010 	mov	dpl, #0x03
      000CE9 C0 07            [24] 1011 	push	ar7
      000CEB C0 06            [24] 1012 	push	ar6
      000CED C0 03            [24] 1013 	push	ar3
      000CEF C0 02            [24] 1014 	push	ar2
      000CF1 12 0A AF         [24] 1015 	lcall	_RDA5807M_Read_Reg
      000CF4 AC 82            [24] 1016 	mov	r4, dpl
      000CF6 D0 02            [24] 1017 	pop	ar2
      000CF8 D0 03            [24] 1018 	pop	ar3
      000CFA D0 06            [24] 1019 	pop	ar6
      000CFC D0 07            [24] 1020 	pop	ar7
      000CFE 53 04 03         [24] 1021 	anl	ar4,#0x03
      000D01 7D 00            [12] 1022 	mov	r5,#0x00
                                   1023 ;	code/rda5807/RDA5807M.c:186: if (band == 0 /*0b00*/)
      000D03 EC               [12] 1024 	mov	a,r4
      000D04 4D               [12] 1025 	orl	a,r5
                                   1026 ;	code/rda5807/RDA5807M.c:187: Space = 10;
      000D05 70 05            [24] 1027 	jnz	00126$
      000D07 78 0A            [12] 1028 	mov	r0,#0x0a
      000D09 F9               [12] 1029 	mov	r1,a
      000D0A 80 1F            [24] 1030 	sjmp	00127$
      000D0C                       1031 00126$:
                                   1032 ;	code/rda5807/RDA5807M.c:188: else if (band == 1 /*0b01*/)
      000D0C BC 01 06         [24] 1033 	cjne	r4,#0x01,00123$
                                   1034 ;	code/rda5807/RDA5807M.c:189: Space = 20;
      000D0F 78 14            [12] 1035 	mov	r0,#0x14
      000D11 79 00            [12] 1036 	mov	r1,#0x00
      000D13 80 16            [24] 1037 	sjmp	00127$
      000D15                       1038 00123$:
                                   1039 ;	code/rda5807/RDA5807M.c:190: else if (band == 2 /*0b10*/)
      000D15 BC 02 06         [24] 1040 	cjne	r4,#0x02,00120$
                                   1041 ;	code/rda5807/RDA5807M.c:191: Space = 5;
      000D18 78 05            [12] 1042 	mov	r0,#0x05
      000D1A 79 00            [12] 1043 	mov	r1,#0x00
      000D1C 80 0D            [24] 1044 	sjmp	00127$
      000D1E                       1045 00120$:
                                   1046 ;	code/rda5807/RDA5807M.c:192: else if (band == 3 /*0b11*/)
      000D1E BC 03 06         [24] 1047 	cjne	r4,#0x03,00117$
                                   1048 ;	code/rda5807/RDA5807M.c:193: Space = 2;
      000D21 78 02            [12] 1049 	mov	r0,#0x02
      000D23 79 00            [12] 1050 	mov	r1,#0x00
      000D25 80 04            [24] 1051 	sjmp	00127$
      000D27                       1052 00117$:
                                   1053 ;	code/rda5807/RDA5807M.c:195: return 0;
      000D27 90 00 00         [24] 1054 	mov	dptr,#0x0000
      000D2A 22               [24] 1055 	ret
      000D2B                       1056 00127$:
                                   1057 ;	code/rda5807/RDA5807M.c:196: band = Start + Chan * Space;
      000D2B 88 1E            [24] 1058 	mov	__mulint_PARM_2,r0
      000D2D 89 1F            [24] 1059 	mov	(__mulint_PARM_2 + 1),r1
      000D2F 8E 82            [24] 1060 	mov	dpl, r6
      000D31 8F 83            [24] 1061 	mov	dph, r7
      000D33 C0 03            [24] 1062 	push	ar3
      000D35 C0 02            [24] 1063 	push	ar2
      000D37 12 12 87         [24] 1064 	lcall	__mulint
      000D3A AE 82            [24] 1065 	mov	r6, dpl
      000D3C AF 83            [24] 1066 	mov	r7, dph
      000D3E D0 02            [24] 1067 	pop	ar2
      000D40 D0 03            [24] 1068 	pop	ar3
      000D42 EE               [12] 1069 	mov	a,r6
      000D43 2A               [12] 1070 	add	a, r2
      000D44 FE               [12] 1071 	mov	r6,a
      000D45 EF               [12] 1072 	mov	a,r7
      000D46 3B               [12] 1073 	addc	a, r3
      000D47 FF               [12] 1074 	mov	r7,a
                                   1075 ;	code/rda5807/RDA5807M.c:197: if (band > End)
      000D48 C3               [12] 1076 	clr	c
      000D49 E5 46            [12] 1077 	mov	a,_RDA5807M_ChanToFreq_End_10000_57
      000D4B 9E               [12] 1078 	subb	a,r6
      000D4C E5 47            [12] 1079 	mov	a,(_RDA5807M_ChanToFreq_End_10000_57 + 1)
      000D4E 9F               [12] 1080 	subb	a,r7
      000D4F 50 04            [24] 1081 	jnc	00129$
                                   1082 ;	code/rda5807/RDA5807M.c:198: return 0;
      000D51 90 00 00         [24] 1083 	mov	dptr,#0x0000
      000D54 22               [24] 1084 	ret
      000D55                       1085 00129$:
                                   1086 ;	code/rda5807/RDA5807M.c:199: if (band < Start)
      000D55 C3               [12] 1087 	clr	c
      000D56 EE               [12] 1088 	mov	a,r6
      000D57 9A               [12] 1089 	subb	a,r2
      000D58 EF               [12] 1090 	mov	a,r7
      000D59 9B               [12] 1091 	subb	a,r3
      000D5A 50 04            [24] 1092 	jnc	00131$
                                   1093 ;	code/rda5807/RDA5807M.c:200: return 0;
      000D5C 90 00 00         [24] 1094 	mov	dptr,#0x0000
      000D5F 22               [24] 1095 	ret
      000D60                       1096 00131$:
                                   1097 ;	code/rda5807/RDA5807M.c:201: return band;
      000D60 8E 82            [24] 1098 	mov	dpl, r6
      000D62 8F 83            [24] 1099 	mov	dph, r7
                                   1100 ;	code/rda5807/RDA5807M.c:202: }
      000D64 22               [24] 1101 	ret
                                   1102 ;------------------------------------------------------------
                                   1103 ;Allocation info for local variables in function 'RDA5807M_Read_Freq'
                                   1104 ;------------------------------------------------------------
                                   1105 ;Chan          Allocated to registers 
                                   1106 ;------------------------------------------------------------
                                   1107 ;	code/rda5807/RDA5807M.c:208: uint16_t RDA5807M_Read_Freq(void)
                                   1108 ;	-----------------------------------------
                                   1109 ;	 function RDA5807M_Read_Freq
                                   1110 ;	-----------------------------------------
      000D65                       1111 _RDA5807M_Read_Freq:
                                   1112 ;	code/rda5807/RDA5807M.c:211: Chan = RDA5807M_Read_Reg(0x0A) & 0x03FF;
      000D65 75 82 0A         [24] 1113 	mov	dpl, #0x0a
      000D68 12 0A AF         [24] 1114 	lcall	_RDA5807M_Read_Reg
      000D6B AE 82            [24] 1115 	mov	r6, dpl
      000D6D AF 83            [24] 1116 	mov	r7, dph
      000D6F 53 07 03         [24] 1117 	anl	ar7,#0x03
      000D72 8E 82            [24] 1118 	mov	dpl,r6
      000D74 8F 83            [24] 1119 	mov	dph,r7
                                   1120 ;	code/rda5807/RDA5807M.c:212: return RDA5807M_ChanToFreq(Chan);
                                   1121 ;	code/rda5807/RDA5807M.c:213: }
      000D76 02 0C 62         [24] 1122 	ljmp	_RDA5807M_ChanToFreq
                                   1123 ;------------------------------------------------------------
                                   1124 ;Allocation info for local variables in function 'RDA5807M_Set_Freq'
                                   1125 ;------------------------------------------------------------
                                   1126 ;freq          Allocated to registers r6 r7 
                                   1127 ;Chan          Allocated to registers r4 r5 
                                   1128 ;reg03         Allocated to registers 
                                   1129 ;timeout       Allocated to registers r4 r5 
                                   1130 ;------------------------------------------------------------
                                   1131 ;	code/rda5807/RDA5807M.c:221: uint8_t RDA5807M_Set_Freq(uint16_t freq)
                                   1132 ;	-----------------------------------------
                                   1133 ;	 function RDA5807M_Set_Freq
                                   1134 ;	-----------------------------------------
      000D79                       1135 _RDA5807M_Set_Freq:
                                   1136 ;	code/rda5807/RDA5807M.c:223: uint16_t Chan = RDA5807M_FreqToChan(freq); // 先转化为信道值
      000D79 AE 82            [24] 1137 	mov	r6,dpl
      000D7B AF 83            [24] 1138 	mov  r7,dph
      000D7D C0 07            [24] 1139 	push	ar7
      000D7F C0 06            [24] 1140 	push	ar6
      000D81 12 0B 74         [24] 1141 	lcall	_RDA5807M_FreqToChan
      000D84 AC 82            [24] 1142 	mov	r4, dpl
      000D86 AD 83            [24] 1143 	mov	r5, dph
                                   1144 ;	code/rda5807/RDA5807M.c:227: reg03 = RDA5807M_Read_Reg(0x03);
      000D88 75 82 03         [24] 1145 	mov	dpl, #0x03
      000D8B C0 05            [24] 1146 	push	ar5
      000D8D C0 04            [24] 1147 	push	ar4
      000D8F 12 0A AF         [24] 1148 	lcall	_RDA5807M_Read_Reg
      000D92 AA 82            [24] 1149 	mov	r2, dpl
      000D94 D0 04            [24] 1150 	pop	ar4
      000D96 D0 05            [24] 1151 	pop	ar5
                                   1152 ;	code/rda5807/RDA5807M.c:228: reg03 &= 0x003F;               // Clear channel bits (15:6)
      000D98 53 02 3F         [24] 1153 	anl	ar2,#0x3f
      000D9B 7B 00            [12] 1154 	mov	r3,#0x00
                                   1155 ;	code/rda5807/RDA5807M.c:229: reg03 |= (Chan & 0x03FF) << 6; // Set channel bits
      000D9D 53 05 03         [24] 1156 	anl	ar5,#0x03
      000DA0 ED               [12] 1157 	mov	a,r5
      000DA1 54 03            [12] 1158 	anl	a,#0x03
      000DA3 A2 E0            [12] 1159 	mov	c,acc.0
      000DA5 CC               [12] 1160 	xch	a,r4
      000DA6 13               [12] 1161 	rrc	a
      000DA7 CC               [12] 1162 	xch	a,r4
      000DA8 13               [12] 1163 	rrc	a
      000DA9 A2 E0            [12] 1164 	mov	c,acc.0
      000DAB CC               [12] 1165 	xch	a,r4
      000DAC 13               [12] 1166 	rrc	a
      000DAD CC               [12] 1167 	xch	a,r4
      000DAE 13               [12] 1168 	rrc	a
      000DAF CC               [12] 1169 	xch	a,r4
      000DB0 FD               [12] 1170 	mov	r5,a
      000DB1 EA               [12] 1171 	mov	a,r2
      000DB2 42 04            [12] 1172 	orl	ar4,a
      000DB4 EB               [12] 1173 	mov	a,r3
      000DB5 42 05            [12] 1174 	orl	ar5,a
                                   1175 ;	code/rda5807/RDA5807M.c:230: reg03 |= (1 << 4);             // Enable Tune
      000DB7 74 10            [12] 1176 	mov	a,#0x10
      000DB9 4C               [12] 1177 	orl	a,r4
      000DBA F5 3E            [12] 1178 	mov	_RDA5807M_Write_Reg_PARM_2,a
      000DBC 8D 3F            [24] 1179 	mov	(_RDA5807M_Write_Reg_PARM_2 + 1),r5
                                   1180 ;	code/rda5807/RDA5807M.c:231: RDA5807M_Write_Reg(0x03, reg03);
      000DBE 75 82 03         [24] 1181 	mov	dpl, #0x03
      000DC1 12 0A 7C         [24] 1182 	lcall	_RDA5807M_Write_Reg
      000DC4 D0 06            [24] 1183 	pop	ar6
      000DC6 D0 07            [24] 1184 	pop	ar7
                                   1185 ;	code/rda5807/RDA5807M.c:234: while ((RDA5807M_Read_Reg(0x0A) & (1 << 14)) == 0)
      000DC8 7C 00            [12] 1186 	mov	r4,#0x00
      000DCA 7D 00            [12] 1187 	mov	r5,#0x00
      000DCC                       1188 00103$:
      000DCC 75 82 0A         [24] 1189 	mov	dpl, #0x0a
      000DCF C0 07            [24] 1190 	push	ar7
      000DD1 C0 06            [24] 1191 	push	ar6
      000DD3 C0 05            [24] 1192 	push	ar5
      000DD5 C0 04            [24] 1193 	push	ar4
      000DD7 12 0A AF         [24] 1194 	lcall	_RDA5807M_Read_Reg
      000DDA E5 82            [12] 1195 	mov	a, dpl
      000DDC 85 83 F0         [24] 1196 	mov	b, dph
      000DDF D0 04            [24] 1197 	pop	ar4
      000DE1 D0 05            [24] 1198 	pop	ar5
      000DE3 D0 06            [24] 1199 	pop	ar6
      000DE5 D0 07            [24] 1200 	pop	ar7
      000DE7 E5 F0            [12] 1201 	mov	a,b
      000DE9 20 E6 43         [24] 1202 	jb	acc.6,00105$
                                   1203 ;	code/rda5807/RDA5807M.c:236: Delay(1); // 1ms delay
      000DEC 90 00 01         [24] 1204 	mov	dptr,#0x0001
      000DEF C0 07            [24] 1205 	push	ar7
      000DF1 C0 06            [24] 1206 	push	ar6
      000DF3 C0 05            [24] 1207 	push	ar5
      000DF5 C0 04            [24] 1208 	push	ar4
      000DF7 12 05 BB         [24] 1209 	lcall	_Delay
      000DFA D0 04            [24] 1210 	pop	ar4
      000DFC D0 05            [24] 1211 	pop	ar5
      000DFE D0 06            [24] 1212 	pop	ar6
      000E00 D0 07            [24] 1213 	pop	ar7
                                   1214 ;	code/rda5807/RDA5807M.c:237: if (timeout++ > 500) // 500ms timeout
      000E02 8C 02            [24] 1215 	mov	ar2,r4
      000E04 8D 03            [24] 1216 	mov	ar3,r5
      000E06 0C               [12] 1217 	inc	r4
      000E07 BC 00 01         [24] 1218 	cjne	r4,#0x00,00130$
      000E0A 0D               [12] 1219 	inc	r5
      000E0B                       1220 00130$:
      000E0B C3               [12] 1221 	clr	c
      000E0C 74 F4            [12] 1222 	mov	a,#0xf4
      000E0E 9A               [12] 1223 	subb	a,r2
      000E0F 74 01            [12] 1224 	mov	a,#0x01
      000E11 9B               [12] 1225 	subb	a,r3
      000E12 50 B8            [24] 1226 	jnc	00103$
                                   1227 ;	code/rda5807/RDA5807M.c:240: reg03 = RDA5807M_Read_Reg(0x03);
      000E14 75 82 03         [24] 1228 	mov	dpl, #0x03
      000E17 12 0A AF         [24] 1229 	lcall	_RDA5807M_Read_Reg
      000E1A AC 82            [24] 1230 	mov	r4, dpl
      000E1C AD 83            [24] 1231 	mov	r5, dph
                                   1232 ;	code/rda5807/RDA5807M.c:241: reg03 &= ~(1 << 4); // Clear TUNE bit
      000E1E 53 04 EF         [24] 1233 	anl	ar4,#0xef
      000E21 8C 3E            [24] 1234 	mov	_RDA5807M_Write_Reg_PARM_2,r4
      000E23 8D 3F            [24] 1235 	mov	(_RDA5807M_Write_Reg_PARM_2 + 1),r5
                                   1236 ;	code/rda5807/RDA5807M.c:242: RDA5807M_Write_Reg(0x03, reg03);
      000E25 75 82 03         [24] 1237 	mov	dpl, #0x03
      000E28 12 0A 7C         [24] 1238 	lcall	_RDA5807M_Write_Reg
                                   1239 ;	code/rda5807/RDA5807M.c:243: return 0;
      000E2B 75 82 00         [24] 1240 	mov	dpl, #0x00
      000E2E 22               [24] 1241 	ret
      000E2F                       1242 00105$:
                                   1243 ;	code/rda5807/RDA5807M.c:247: DISPLAY_type = 10;
      000E2F 75 0A 0A         [24] 1244 	mov	_DISPLAY_type,#0x0a
                                   1245 ;	code/rda5807/RDA5807M.c:248: sys_freq = freq;
      000E32 8E 1A            [24] 1246 	mov	_sys_freq,r6
      000E34 8F 1B            [24] 1247 	mov	(_sys_freq + 1),r7
                                   1248 ;	code/rda5807/RDA5807M.c:249: return 1;
      000E36 75 82 01         [24] 1249 	mov	dpl, #0x01
                                   1250 ;	code/rda5807/RDA5807M.c:250: }
      000E39 22               [24] 1251 	ret
                                   1252 ;------------------------------------------------------------
                                   1253 ;Allocation info for local variables in function 'RDA5807M_Read_SNR'
                                   1254 ;------------------------------------------------------------
                                   1255 ;temp_snr      Allocated to registers r6 r7 
                                   1256 ;------------------------------------------------------------
                                   1257 ;	code/rda5807/RDA5807M.c:255: uint8_t RDA5807M_Read_SNR(void)
                                   1258 ;	-----------------------------------------
                                   1259 ;	 function RDA5807M_Read_SNR
                                   1260 ;	-----------------------------------------
      000E3A                       1261 _RDA5807M_Read_SNR:
                                   1262 ;	code/rda5807/RDA5807M.c:259: temp_snr = RDA5807M_Read_Reg(0x05);
      000E3A 75 82 05         [24] 1263 	mov	dpl, #0x05
      000E3D 12 0A AF         [24] 1264 	lcall	_RDA5807M_Read_Reg
                                   1265 ;	code/rda5807/RDA5807M.c:260: temp_snr >>= 8;
      000E40 AE 83            [24] 1266 	mov	r6,dph
                                   1267 ;	code/rda5807/RDA5807M.c:261: return ((uint8_t)temp_snr) & 0x0F;
      000E42 74 0F            [12] 1268 	mov	a,#0x0f
      000E44 5E               [12] 1269 	anl	a,r6
      000E45 F5 82            [12] 1270 	mov	dpl,a
                                   1271 ;	code/rda5807/RDA5807M.c:262: }
      000E47 22               [24] 1272 	ret
                                   1273 ;------------------------------------------------------------
                                   1274 ;Allocation info for local variables in function 'RDA5807M_Set_SNR'
                                   1275 ;------------------------------------------------------------
                                   1276 ;snr           Allocated to registers r7 
                                   1277 ;temp_snr      Allocated to registers r5 r6 
                                   1278 ;------------------------------------------------------------
                                   1279 ;	code/rda5807/RDA5807M.c:267: void RDA5807M_Set_SNR(uint8_t snr)
                                   1280 ;	-----------------------------------------
                                   1281 ;	 function RDA5807M_Set_SNR
                                   1282 ;	-----------------------------------------
      000E48                       1283 _RDA5807M_Set_SNR:
      000E48 AF 82            [24] 1284 	mov	r7, dpl
                                   1285 ;	code/rda5807/RDA5807M.c:271: temp_snr = RDA5807M_Read_Reg(0x05);
      000E4A 75 82 05         [24] 1286 	mov	dpl, #0x05
      000E4D C0 07            [24] 1287 	push	ar7
      000E4F 12 0A AF         [24] 1288 	lcall	_RDA5807M_Read_Reg
      000E52 AD 82            [24] 1289 	mov	r5, dpl
      000E54 AE 83            [24] 1290 	mov	r6, dph
      000E56 D0 07            [24] 1291 	pop	ar7
                                   1292 ;	code/rda5807/RDA5807M.c:272: temp_snr &= 0xF0FF;
      000E58 53 06 F0         [24] 1293 	anl	ar6,#0xf0
                                   1294 ;	code/rda5807/RDA5807M.c:273: temp_snr |= snr << 8;
      000E5B 8F 04            [24] 1295 	mov	ar4,r7
      000E5D 7F 00            [12] 1296 	mov	r7,#0x00
      000E5F ED               [12] 1297 	mov	a,r5
      000E60 42 07            [12] 1298 	orl	ar7,a
      000E62 EE               [12] 1299 	mov	a,r6
      000E63 42 04            [12] 1300 	orl	ar4,a
      000E65 8F 3E            [24] 1301 	mov	_RDA5807M_Write_Reg_PARM_2,r7
      000E67 8C 3F            [24] 1302 	mov	(_RDA5807M_Write_Reg_PARM_2 + 1),r4
                                   1303 ;	code/rda5807/RDA5807M.c:274: RDA5807M_Write_Reg(0x05, temp_snr);
      000E69 75 82 05         [24] 1304 	mov	dpl, #0x05
                                   1305 ;	code/rda5807/RDA5807M.c:275: }
      000E6C 02 0A 7C         [24] 1306 	ljmp	_RDA5807M_Write_Reg
                                   1307 ;------------------------------------------------------------
                                   1308 ;Allocation info for local variables in function 'seek'
                                   1309 ;------------------------------------------------------------
                                   1310 ;direction     Allocated to registers r7 
                                   1311 ;reg02         Allocated to registers 
                                   1312 ;freq          Allocated to registers 
                                   1313 ;timeout       Allocated to registers r6 r7 
                                   1314 ;------------------------------------------------------------
                                   1315 ;	code/rda5807/RDA5807M.c:282: uint16_t seek(uint8_t direction)
                                   1316 ;	-----------------------------------------
                                   1317 ;	 function seek
                                   1318 ;	-----------------------------------------
      000E6F                       1319 _seek:
      000E6F AF 82            [24] 1320 	mov	r7, dpl
                                   1321 ;	code/rda5807/RDA5807M.c:289: reg02 = RDA5807M_Read_Reg(0x02);
      000E71 75 82 02         [24] 1322 	mov	dpl, #0x02
      000E74 C0 07            [24] 1323 	push	ar7
      000E76 12 0A AF         [24] 1324 	lcall	_RDA5807M_Read_Reg
      000E79 AD 82            [24] 1325 	mov	r5, dpl
      000E7B AE 83            [24] 1326 	mov	r6, dph
      000E7D D0 07            [24] 1327 	pop	ar7
                                   1328 ;	code/rda5807/RDA5807M.c:292: if (direction == 1)
      000E7F BF 01 09         [24] 1329 	cjne	r7,#0x01,00102$
                                   1330 ;	code/rda5807/RDA5807M.c:294: reg02 |= (1 << 9); // Seek up
      000E82 8D 04            [24] 1331 	mov	ar4,r5
      000E84 8E 07            [24] 1332 	mov	ar7,r6
      000E86 43 07 02         [24] 1333 	orl	ar7,#0x02
      000E89 80 07            [24] 1334 	sjmp	00103$
      000E8B                       1335 00102$:
                                   1336 ;	code/rda5807/RDA5807M.c:298: reg02 &= ~(1 << 9); // Seek down
      000E8B 53 06 FD         [24] 1337 	anl	ar6,#0xfd
      000E8E 8D 04            [24] 1338 	mov	ar4,r5
      000E90 8E 07            [24] 1339 	mov	ar7,r6
      000E92                       1340 00103$:
                                   1341 ;	code/rda5807/RDA5807M.c:302: reg02 |= (1 << 8);
      000E92 43 07 01         [24] 1342 	orl	ar7,#0x01
      000E95 8C 3E            [24] 1343 	mov	_RDA5807M_Write_Reg_PARM_2,r4
      000E97 8F 3F            [24] 1344 	mov	(_RDA5807M_Write_Reg_PARM_2 + 1),r7
                                   1345 ;	code/rda5807/RDA5807M.c:303: RDA5807M_Write_Reg(0x02, reg02);
      000E99 75 82 02         [24] 1346 	mov	dpl, #0x02
      000E9C 12 0A 7C         [24] 1347 	lcall	_RDA5807M_Write_Reg
                                   1348 ;	code/rda5807/RDA5807M.c:306: while ((RDA5807M_Read_Reg(0x0A) & (1 << 14)) == 0)
      000E9F 7E 00            [12] 1349 	mov	r6,#0x00
      000EA1 7F 00            [12] 1350 	mov	r7,#0x00
      000EA3                       1351 00106$:
      000EA3 75 82 0A         [24] 1352 	mov	dpl, #0x0a
      000EA6 C0 07            [24] 1353 	push	ar7
      000EA8 C0 06            [24] 1354 	push	ar6
      000EAA 12 0A AF         [24] 1355 	lcall	_RDA5807M_Read_Reg
      000EAD E5 82            [12] 1356 	mov	a, dpl
      000EAF 85 83 F0         [24] 1357 	mov	b, dph
      000EB2 D0 06            [24] 1358 	pop	ar6
      000EB4 D0 07            [24] 1359 	pop	ar7
      000EB6 E5 F0            [12] 1360 	mov	a,b
      000EB8 20 E6 3A         [24] 1361 	jb	acc.6,00108$
                                   1362 ;	code/rda5807/RDA5807M.c:308: Delay(10);
      000EBB 90 00 0A         [24] 1363 	mov	dptr,#0x000a
      000EBE C0 07            [24] 1364 	push	ar7
      000EC0 C0 06            [24] 1365 	push	ar6
      000EC2 12 05 BB         [24] 1366 	lcall	_Delay
      000EC5 D0 06            [24] 1367 	pop	ar6
      000EC7 D0 07            [24] 1368 	pop	ar7
                                   1369 ;	code/rda5807/RDA5807M.c:309: if (timeout++ > 200) // 2 seconds timeout
      000EC9 8E 04            [24] 1370 	mov	ar4,r6
      000ECB 8F 05            [24] 1371 	mov	ar5,r7
      000ECD 0E               [12] 1372 	inc	r6
      000ECE BE 00 01         [24] 1373 	cjne	r6,#0x00,00142$
      000ED1 0F               [12] 1374 	inc	r7
      000ED2                       1375 00142$:
      000ED2 C3               [12] 1376 	clr	c
      000ED3 74 C8            [12] 1377 	mov	a,#0xc8
      000ED5 9C               [12] 1378 	subb	a,r4
      000ED6 E4               [12] 1379 	clr	a
      000ED7 9D               [12] 1380 	subb	a,r5
      000ED8 50 C9            [24] 1381 	jnc	00106$
                                   1382 ;	code/rda5807/RDA5807M.c:312: reg02 = RDA5807M_Read_Reg(0x02);
      000EDA 75 82 02         [24] 1383 	mov	dpl, #0x02
      000EDD 12 0A AF         [24] 1384 	lcall	_RDA5807M_Read_Reg
      000EE0 AE 82            [24] 1385 	mov	r6, dpl
      000EE2 AF 83            [24] 1386 	mov	r7, dph
                                   1387 ;	code/rda5807/RDA5807M.c:313: reg02 &= ~(1 << 8); // Clear SEEK bit
      000EE4 53 07 FE         [24] 1388 	anl	ar7,#0xfe
      000EE7 8E 3E            [24] 1389 	mov	_RDA5807M_Write_Reg_PARM_2,r6
      000EE9 8F 3F            [24] 1390 	mov	(_RDA5807M_Write_Reg_PARM_2 + 1),r7
                                   1391 ;	code/rda5807/RDA5807M.c:314: RDA5807M_Write_Reg(0x02, reg02);
      000EEB 75 82 02         [24] 1392 	mov	dpl, #0x02
      000EEE 12 0A 7C         [24] 1393 	lcall	_RDA5807M_Write_Reg
                                   1394 ;	code/rda5807/RDA5807M.c:315: return 0;
      000EF1 90 00 00         [24] 1395 	mov	dptr,#0x0000
      000EF4 22               [24] 1396 	ret
      000EF5                       1397 00108$:
                                   1398 ;	code/rda5807/RDA5807M.c:320: reg02 = RDA5807M_Read_Reg(0x03);
      000EF5 75 82 03         [24] 1399 	mov	dpl, #0x03
      000EF8 12 0A AF         [24] 1400 	lcall	_RDA5807M_Read_Reg
      000EFB E5 82            [12] 1401 	mov	a, dpl
      000EFD 85 83 F0         [24] 1402 	mov	b, dph
                                   1403 ;	code/rda5807/RDA5807M.c:321: reg02 |= (1 << 4); // TUNE=1, enable tuning
      000F00 44 10            [12] 1404 	orl	a,#0x10
      000F02 F5 3E            [12] 1405 	mov	_RDA5807M_Write_Reg_PARM_2,a
      000F04 85 F0 3F         [24] 1406 	mov	(_RDA5807M_Write_Reg_PARM_2 + 1),b
                                   1407 ;	code/rda5807/RDA5807M.c:322: RDA5807M_Write_Reg(0x03, reg02);
      000F07 75 82 03         [24] 1408 	mov	dpl, #0x03
      000F0A 12 0A 7C         [24] 1409 	lcall	_RDA5807M_Write_Reg
                                   1410 ;	code/rda5807/RDA5807M.c:325: reg02 = RDA5807M_Read_Reg(0x02);
      000F0D 75 82 02         [24] 1411 	mov	dpl, #0x02
      000F10 12 0A AF         [24] 1412 	lcall	_RDA5807M_Read_Reg
      000F13 AE 82            [24] 1413 	mov	r6, dpl
      000F15 AF 83            [24] 1414 	mov	r7, dph
                                   1415 ;	code/rda5807/RDA5807M.c:326: reg02 &= ~(1 << 8); // SEEK=0
      000F17 53 07 FE         [24] 1416 	anl	ar7,#0xfe
      000F1A 8E 3E            [24] 1417 	mov	_RDA5807M_Write_Reg_PARM_2,r6
      000F1C 8F 3F            [24] 1418 	mov	(_RDA5807M_Write_Reg_PARM_2 + 1),r7
                                   1419 ;	code/rda5807/RDA5807M.c:327: RDA5807M_Write_Reg(0x02, reg02);
      000F1E 75 82 02         [24] 1420 	mov	dpl, #0x02
      000F21 12 0A 7C         [24] 1421 	lcall	_RDA5807M_Write_Reg
                                   1422 ;	code/rda5807/RDA5807M.c:329: freq = RDA5807M_Read_Freq();
                                   1423 ;	code/rda5807/RDA5807M.c:330: return freq;
                                   1424 ;	code/rda5807/RDA5807M.c:331: }
      000F24 02 0D 65         [24] 1425 	ljmp	_RDA5807M_Read_Freq
                                   1426 ;------------------------------------------------------------
                                   1427 ;Allocation info for local variables in function 'RDA5807M_Seek'
                                   1428 ;------------------------------------------------------------
                                   1429 ;direction     Allocated to registers 
                                   1430 ;------------------------------------------------------------
                                   1431 ;	code/rda5807/RDA5807M.c:333: uint16_t RDA5807M_Seek(uint8_t direction)
                                   1432 ;	-----------------------------------------
                                   1433 ;	 function RDA5807M_Seek
                                   1434 ;	-----------------------------------------
      000F27                       1435 _RDA5807M_Seek:
                                   1436 ;	code/rda5807/RDA5807M.c:335: return seek(direction);
                                   1437 ;	code/rda5807/RDA5807M.c:336: }
      000F27 02 0E 6F         [24] 1438 	ljmp	_seek
                                   1439 ;------------------------------------------------------------
                                   1440 ;Allocation info for local variables in function 'RDA5807M_Radio_TRUE'
                                   1441 ;------------------------------------------------------------
                                   1442 ;isRadio       Allocated to registers r6 r7 
                                   1443 ;------------------------------------------------------------
                                   1444 ;	code/rda5807/RDA5807M.c:342: uint8_t RDA5807M_Radio_TRUE(void)
                                   1445 ;	-----------------------------------------
                                   1446 ;	 function RDA5807M_Radio_TRUE
                                   1447 ;	-----------------------------------------
      000F2A                       1448 _RDA5807M_Radio_TRUE:
                                   1449 ;	code/rda5807/RDA5807M.c:345: isRadio = RDA5807M_Read_Reg(0x0B);
      000F2A 75 82 0B         [24] 1450 	mov	dpl, #0x0b
      000F2D 12 0A AF         [24] 1451 	lcall	_RDA5807M_Read_Reg
                                   1452 ;	code/rda5807/RDA5807M.c:346: isRadio >>= 8;
      000F30 AE 83            [24] 1453 	mov	r6,dph
                                   1454 ;	code/rda5807/RDA5807M.c:347: isRadio &= 1;
      000F32 53 06 01         [24] 1455 	anl	ar6,#0x01
                                   1456 ;	code/rda5807/RDA5807M.c:348: return isRadio;
      000F35 8E 82            [24] 1457 	mov	dpl,r6
                                   1458 ;	code/rda5807/RDA5807M.c:349: }
      000F37 22               [24] 1459 	ret
                                   1460 ;------------------------------------------------------------
                                   1461 ;Allocation info for local variables in function 'RDA5807M_Search_Automatic'
                                   1462 ;------------------------------------------------------------
                                   1463 ;i             Allocated to registers r7 
                                   1464 ;band          Allocated to registers r6 
                                   1465 ;Start         Allocated to registers r4 r5 
                                   1466 ;End           Allocated to registers r2 r3 
                                   1467 ;------------------------------------------------------------
                                   1468 ;	code/rda5807/RDA5807M.c:357: void RDA5807M_Search_Automatic()
                                   1469 ;	-----------------------------------------
                                   1470 ;	 function RDA5807M_Search_Automatic
                                   1471 ;	-----------------------------------------
      000F38                       1472 _RDA5807M_Search_Automatic:
                                   1473 ;	code/rda5807/RDA5807M.c:359: uint16_t i = 0; // 电台索引
      000F38 7F 00            [12] 1474 	mov	r7,#0x00
                                   1475 ;	code/rda5807/RDA5807M.c:362: band = (RDA5807M_Read_Reg(0x03) & 0x000C) >> 2; // 0x03的3，2位（band）
      000F3A 75 82 03         [24] 1476 	mov	dpl, #0x03
      000F3D C0 07            [24] 1477 	push	ar7
      000F3F 12 0A AF         [24] 1478 	lcall	_RDA5807M_Read_Reg
      000F42 AD 82            [24] 1479 	mov	r5, dpl
      000F44 D0 07            [24] 1480 	pop	ar7
      000F46 53 05 0C         [24] 1481 	anl	ar5,#0x0c
      000F49 E4               [12] 1482 	clr	a
      000F4A C3               [12] 1483 	clr	c
      000F4B 13               [12] 1484 	rrc	a
      000F4C CD               [12] 1485 	xch	a,r5
      000F4D 13               [12] 1486 	rrc	a
      000F4E CD               [12] 1487 	xch	a,r5
      000F4F C3               [12] 1488 	clr	c
      000F50 13               [12] 1489 	rrc	a
      000F51 CD               [12] 1490 	xch	a,r5
      000F52 13               [12] 1491 	rrc	a
      000F53 CD               [12] 1492 	xch	a,r5
                                   1493 ;	code/rda5807/RDA5807M.c:364: if (band == 0 /*0b00*/)
      000F54 ED               [12] 1494 	mov	a,r5
      000F55 FE               [12] 1495 	mov	r6,a
      000F56 70 0A            [24] 1496 	jnz	00114$
                                   1497 ;	code/rda5807/RDA5807M.c:366: Start = 8700;
      000F58 7C FC            [12] 1498 	mov	r4,#0xfc
      000F5A 7D 21            [12] 1499 	mov	r5,#0x21
                                   1500 ;	code/rda5807/RDA5807M.c:367: End = 10800;
      000F5C 7A 30            [12] 1501 	mov	r2,#0x30
      000F5E 7B 2A            [12] 1502 	mov	r3,#0x2a
      000F60 80 44            [24] 1503 	sjmp	00115$
      000F62                       1504 00114$:
                                   1505 ;	code/rda5807/RDA5807M.c:369: else if (band == 1 /*0b01*/)
      000F62 BE 01 0A         [24] 1506 	cjne	r6,#0x01,00111$
                                   1507 ;	code/rda5807/RDA5807M.c:371: Start = 7600;
      000F65 7C B0            [12] 1508 	mov	r4,#0xb0
      000F67 7D 1D            [12] 1509 	mov	r5,#0x1d
                                   1510 ;	code/rda5807/RDA5807M.c:372: End = 9100;
      000F69 7A 8C            [12] 1511 	mov	r2,#0x8c
      000F6B 7B 23            [12] 1512 	mov	r3,#0x23
      000F6D 80 37            [24] 1513 	sjmp	00115$
      000F6F                       1514 00111$:
                                   1515 ;	code/rda5807/RDA5807M.c:374: else if (band == 2 /*0b10*/)
      000F6F BE 02 0A         [24] 1516 	cjne	r6,#0x02,00108$
                                   1517 ;	code/rda5807/RDA5807M.c:376: Start = 7600;
      000F72 7C B0            [12] 1518 	mov	r4,#0xb0
      000F74 7D 1D            [12] 1519 	mov	r5,#0x1d
                                   1520 ;	code/rda5807/RDA5807M.c:377: End = 10800;
      000F76 7A 30            [12] 1521 	mov	r2,#0x30
      000F78 7B 2A            [12] 1522 	mov	r3,#0x2a
      000F7A 80 2A            [24] 1523 	sjmp	00115$
      000F7C                       1524 00108$:
                                   1525 ;	code/rda5807/RDA5807M.c:379: else if (band == 3 /*0b11*/)
      000F7C BE 03 26         [24] 1526 	cjne	r6,#0x03,00105$
                                   1527 ;	code/rda5807/RDA5807M.c:381: if ((RDA5807M_Read_Reg(0x07) >> 9) & 0x01)
      000F7F 75 82 07         [24] 1528 	mov	dpl, #0x07
      000F82 C0 07            [24] 1529 	push	ar7
      000F84 12 0A AF         [24] 1530 	lcall	_RDA5807M_Read_Reg
      000F87 AE 83            [24] 1531 	mov	r6, dph
      000F89 D0 07            [24] 1532 	pop	ar7
      000F8B EE               [12] 1533 	mov	a,r6
      000F8C 03               [12] 1534 	rr	a
      000F8D 54 01            [12] 1535 	anl	a,#0x01
      000F8F 60 0A            [24] 1536 	jz	00102$
                                   1537 ;	code/rda5807/RDA5807M.c:383: Start = 6500;
      000F91 7C 64            [12] 1538 	mov	r4,#0x64
      000F93 7D 19            [12] 1539 	mov	r5,#0x19
                                   1540 ;	code/rda5807/RDA5807M.c:384: End = 7600;
      000F95 7A B0            [12] 1541 	mov	r2,#0xb0
      000F97 7B 1D            [12] 1542 	mov	r3,#0x1d
      000F99 80 0B            [24] 1543 	sjmp	00115$
      000F9B                       1544 00102$:
                                   1545 ;	code/rda5807/RDA5807M.c:388: Start = 5000;
      000F9B 7C 88            [12] 1546 	mov	r4,#0x88
      000F9D 7D 13            [12] 1547 	mov	r5,#0x13
                                   1548 ;	code/rda5807/RDA5807M.c:389: End = 7600;
      000F9F 7A B0            [12] 1549 	mov	r2,#0xb0
      000FA1 7B 1D            [12] 1550 	mov	r3,#0x1d
      000FA3 80 01            [24] 1551 	sjmp	00115$
      000FA5                       1552 00105$:
                                   1553 ;	code/rda5807/RDA5807M.c:395: return;
      000FA5 22               [24] 1554 	ret
      000FA6                       1555 00115$:
                                   1556 ;	code/rda5807/RDA5807M.c:398: sys_freq = LED_FRE_REAL = Start;
      000FA6 8C 08            [24] 1557 	mov	_LED_FRE_REAL,r4
      000FA8 8D 09            [24] 1558 	mov	(_LED_FRE_REAL + 1),r5
      000FAA 8C 1A            [24] 1559 	mov	_sys_freq,r4
      000FAC 8D 1B            [24] 1560 	mov	(_sys_freq + 1),r5
                                   1561 ;	code/rda5807/RDA5807M.c:399: LED_SEEK_D = 1;
                                   1562 ;	assignBit
      000FAE D2 00            [12] 1563 	setb	_LED_SEEK_D
                                   1564 ;	code/rda5807/RDA5807M.c:400: DISPLAY_type = 10;
      000FB0 75 0A 0A         [24] 1565 	mov	_DISPLAY_type,#0x0a
                                   1566 ;	code/rda5807/RDA5807M.c:401: LED_HAND_MARK = 0; // 数码管设置为搜台模式
                                   1567 ;	assignBit
      000FB3 C2 01            [12] 1568 	clr	_LED_HAND_MARK
                                   1569 ;	code/rda5807/RDA5807M.c:403: RDA5807M_Set_Freq(Start);
      000FB5 8C 82            [24] 1570 	mov	dpl, r4
      000FB7 8D 83            [24] 1571 	mov	dph, r5
      000FB9 C0 07            [24] 1572 	push	ar7
      000FBB C0 03            [24] 1573 	push	ar3
      000FBD C0 02            [24] 1574 	push	ar2
      000FBF 12 0D 79         [24] 1575 	lcall	_RDA5807M_Set_Freq
                                   1576 ;	code/rda5807/RDA5807M.c:404: Delay(50);
      000FC2 90 00 32         [24] 1577 	mov	dptr,#0x0032
      000FC5 12 05 BB         [24] 1578 	lcall	_Delay
                                   1579 ;	code/rda5807/RDA5807M.c:407: CONF_RADIO_ERASE();
      000FC8 12 05 87         [24] 1580 	lcall	_CONF_RADIO_ERASE
      000FCB D0 02            [24] 1581 	pop	ar2
      000FCD D0 03            [24] 1582 	pop	ar3
      000FCF D0 07            [24] 1583 	pop	ar7
                                   1584 ;	code/rda5807/RDA5807M.c:410: while (sys_freq != End)
      000FD1                       1585 00118$:
      000FD1 EA               [12] 1586 	mov	a,r2
      000FD2 B5 1A 06         [24] 1587 	cjne	a,_sys_freq,00187$
      000FD5 EB               [12] 1588 	mov	a,r3
      000FD6 B5 1B 02         [24] 1589 	cjne	a,(_sys_freq + 1),00187$
      000FD9 80 33            [24] 1590 	sjmp	00120$
      000FDB                       1591 00187$:
                                   1592 ;	code/rda5807/RDA5807M.c:413: sys_freq = seek(1);
      000FDB 75 82 01         [24] 1593 	mov	dpl, #0x01
      000FDE C0 07            [24] 1594 	push	ar7
      000FE0 C0 03            [24] 1595 	push	ar3
      000FE2 C0 02            [24] 1596 	push	ar2
      000FE4 12 0E 6F         [24] 1597 	lcall	_seek
      000FE7 85 82 1A         [24] 1598 	mov	_sys_freq,dpl
      000FEA 85 83 1B         [24] 1599 	mov	(_sys_freq + 1),dph
                                   1600 ;	code/rda5807/RDA5807M.c:415: if (RDA5807M_Radio_TRUE())
      000FED 12 0F 2A         [24] 1601 	lcall	_RDA5807M_Radio_TRUE
      000FF0 E5 82            [12] 1602 	mov	a, dpl
      000FF2 D0 02            [24] 1603 	pop	ar2
      000FF4 D0 03            [24] 1604 	pop	ar3
      000FF6 D0 07            [24] 1605 	pop	ar7
      000FF8 60 D7            [24] 1606 	jz	00118$
                                   1607 ;	code/rda5807/RDA5807M.c:417: CONF_RADIO_PUT(i, sys_freq);
      000FFA 85 1A 1E         [24] 1608 	mov	_CONF_RADIO_PUT_PARM_2,_sys_freq
      000FFD 85 1B 1F         [24] 1609 	mov	(_CONF_RADIO_PUT_PARM_2 + 1),(_sys_freq + 1)
      001000 75 82 00         [24] 1610 	mov	dpl, #0x00
      001003 12 05 88         [24] 1611 	lcall	_CONF_RADIO_PUT
                                   1612 ;	code/rda5807/RDA5807M.c:418: Delay(100); // 给用户听个声音
      001006 90 00 64         [24] 1613 	mov	dptr,#0x0064
      001009 12 05 BB         [24] 1614 	lcall	_Delay
                                   1615 ;	code/rda5807/RDA5807M.c:419: i++;        // 最后会多加一次
      00100C 7F 01            [12] 1616 	mov	r7,#0x01
                                   1617 ;	code/rda5807/RDA5807M.c:420: break; // Stop after finding the first stable frequency
      00100E                       1618 00120$:
                                   1619 ;	code/rda5807/RDA5807M.c:425: if (i > 0) {
      00100E EF               [12] 1620 	mov	a,r7
      00100F 60 0C            [24] 1621 	jz	00123$
                                   1622 ;	code/rda5807/RDA5807M.c:426: sys_radio_index = 0;
      001011 75 1C 00         [24] 1623 	mov	_sys_radio_index,#0x00
                                   1624 ;	code/rda5807/RDA5807M.c:427: RDA5807M_Set_Freq(CONF_GET_RADIO_INDEX(0));
      001014 75 82 00         [24] 1625 	mov	dpl, #0x00
      001017 12 05 8E         [24] 1626 	lcall	_CONF_GET_RADIO_INDEX
                                   1627 ;	code/rda5807/RDA5807M.c:430: }
      00101A 02 0D 79         [24] 1628 	ljmp	_RDA5807M_Set_Freq
      00101D                       1629 00123$:
      00101D 22               [24] 1630 	ret
                                   1631 ;------------------------------------------------------------
                                   1632 ;Allocation info for local variables in function 'RDA5807M_Set_Volume'
                                   1633 ;------------------------------------------------------------
                                   1634 ;vol           Allocated to registers r7 
                                   1635 ;vol16         Allocated to registers r5 r6 
                                   1636 ;------------------------------------------------------------
                                   1637 ;	code/rda5807/RDA5807M.c:439: void RDA5807M_Set_Volume(uint8_t vol)
                                   1638 ;	-----------------------------------------
                                   1639 ;	 function RDA5807M_Set_Volume
                                   1640 ;	-----------------------------------------
      00101E                       1641 _RDA5807M_Set_Volume:
      00101E AF 82            [24] 1642 	mov	r7, dpl
                                   1643 ;	code/rda5807/RDA5807M.c:442: vol16 = RDA5807M_Read_Reg(0x05);
      001020 75 82 05         [24] 1644 	mov	dpl, #0x05
      001023 C0 07            [24] 1645 	push	ar7
      001025 12 0A AF         [24] 1646 	lcall	_RDA5807M_Read_Reg
      001028 AD 82            [24] 1647 	mov	r5, dpl
      00102A AE 83            [24] 1648 	mov	r6, dph
      00102C D0 07            [24] 1649 	pop	ar7
                                   1650 ;	code/rda5807/RDA5807M.c:443: vol16 &= 0xFFF0;
      00102E 53 05 F0         [24] 1651 	anl	ar5,#0xf0
                                   1652 ;	code/rda5807/RDA5807M.c:444: vol16 |= (vol & 0x0F);
      001031 8F 03            [24] 1653 	mov	ar3,r7
      001033 53 03 0F         [24] 1654 	anl	ar3,#0x0f
      001036 7C 00            [12] 1655 	mov	r4,#0x00
      001038 ED               [12] 1656 	mov	a,r5
      001039 42 03            [12] 1657 	orl	ar3,a
      00103B EE               [12] 1658 	mov	a,r6
      00103C 42 04            [12] 1659 	orl	ar4,a
      00103E 8B 3E            [24] 1660 	mov	_RDA5807M_Write_Reg_PARM_2,r3
      001040 8C 3F            [24] 1661 	mov	(_RDA5807M_Write_Reg_PARM_2 + 1),r4
                                   1662 ;	code/rda5807/RDA5807M.c:445: RDA5807M_Write_Reg(0x05, vol16);
      001042 75 82 05         [24] 1663 	mov	dpl, #0x05
      001045 C0 07            [24] 1664 	push	ar7
      001047 12 0A 7C         [24] 1665 	lcall	_RDA5807M_Write_Reg
      00104A D0 07            [24] 1666 	pop	ar7
                                   1667 ;	code/rda5807/RDA5807M.c:447: CONF_SET_VOL(vol);
      00104C 8F 82            [24] 1668 	mov	dpl, r7
      00104E 12 05 5A         [24] 1669 	lcall	_CONF_SET_VOL
                                   1670 ;	code/rda5807/RDA5807M.c:450: if (!MUTE_STATUS)
      001051 E5 3D            [12] 1671 	mov	a,_MUTE_STATUS
      001053 70 06            [24] 1672 	jnz	00103$
                                   1673 ;	code/rda5807/RDA5807M.c:452: RDA5807M_SetMUTE(1);
      001055 75 82 01         [24] 1674 	mov	dpl, #0x01
                                   1675 ;	code/rda5807/RDA5807M.c:454: }
      001058 02 10 5C         [24] 1676 	ljmp	_RDA5807M_SetMUTE
      00105B                       1677 00103$:
      00105B 22               [24] 1678 	ret
                                   1679 ;------------------------------------------------------------
                                   1680 ;Allocation info for local variables in function 'RDA5807M_SetMUTE'
                                   1681 ;------------------------------------------------------------
                                   1682 ;mute          Allocated to registers r7 
                                   1683 ;band          Allocated to registers r4 r7 
                                   1684 ;------------------------------------------------------------
                                   1685 ;	code/rda5807/RDA5807M.c:460: void RDA5807M_SetMUTE(uint8_t mute)
                                   1686 ;	-----------------------------------------
                                   1687 ;	 function RDA5807M_SetMUTE
                                   1688 ;	-----------------------------------------
      00105C                       1689 _RDA5807M_SetMUTE:
      00105C AF 82            [24] 1690 	mov	r7, dpl
                                   1691 ;	code/rda5807/RDA5807M.c:463: band = RDA5807M_Read_Reg(0x02);
      00105E 75 82 02         [24] 1692 	mov	dpl, #0x02
      001061 C0 07            [24] 1693 	push	ar7
      001063 12 0A AF         [24] 1694 	lcall	_RDA5807M_Read_Reg
      001066 AD 82            [24] 1695 	mov	r5, dpl
      001068 AE 83            [24] 1696 	mov	r6, dph
      00106A D0 07            [24] 1697 	pop	ar7
                                   1698 ;	code/rda5807/RDA5807M.c:464: if (mute)
      00106C EF               [12] 1699 	mov	a,r7
      00106D 60 09            [24] 1700 	jz	00102$
                                   1701 ;	code/rda5807/RDA5807M.c:466: band |= 1 << 14;
      00106F 8D 04            [24] 1702 	mov	ar4,r5
      001071 8E 07            [24] 1703 	mov	ar7,r6
      001073 43 07 40         [24] 1704 	orl	ar7,#0x40
      001076 80 07            [24] 1705 	sjmp	00103$
      001078                       1706 00102$:
                                   1707 ;	code/rda5807/RDA5807M.c:470: band &= ~(1 << 14);
      001078 53 06 BF         [24] 1708 	anl	ar6,#0xbf
      00107B 8D 04            [24] 1709 	mov	ar4,r5
      00107D 8E 07            [24] 1710 	mov	ar7,r6
      00107F                       1711 00103$:
                                   1712 ;	code/rda5807/RDA5807M.c:472: RDA5807M_Write_Reg(0x02, band);
      00107F 8C 3E            [24] 1713 	mov	_RDA5807M_Write_Reg_PARM_2,r4
      001081 8F 3F            [24] 1714 	mov	(_RDA5807M_Write_Reg_PARM_2 + 1),r7
      001083 75 82 02         [24] 1715 	mov	dpl, #0x02
                                   1716 ;	code/rda5807/RDA5807M.c:473: }
      001086 02 0A 7C         [24] 1717 	ljmp	_RDA5807M_Write_Reg
                                   1718 ;------------------------------------------------------------
                                   1719 ;Allocation info for local variables in function 'RDA5807M_CHANGE_MUTE'
                                   1720 ;------------------------------------------------------------
                                   1721 ;band          Allocated to registers r4 r5 
                                   1722 ;mute          Allocated to registers r4 
                                   1723 ;------------------------------------------------------------
                                   1724 ;	code/rda5807/RDA5807M.c:475: void RDA5807M_CHANGE_MUTE()
                                   1725 ;	-----------------------------------------
                                   1726 ;	 function RDA5807M_CHANGE_MUTE
                                   1727 ;	-----------------------------------------
      001089                       1728 _RDA5807M_CHANGE_MUTE:
                                   1729 ;	code/rda5807/RDA5807M.c:479: band = RDA5807M_Read_Reg(0x02);
      001089 75 82 02         [24] 1730 	mov	dpl, #0x02
      00108C 12 0A AF         [24] 1731 	lcall	_RDA5807M_Read_Reg
      00108F AE 82            [24] 1732 	mov	r6, dpl
                                   1733 ;	code/rda5807/RDA5807M.c:480: mute = band >> 14;
      001091 E5 83            [12] 1734 	mov	a,dph
      001093 FF               [12] 1735 	mov	r7,a
      001094 23               [12] 1736 	rl	a
      001095 23               [12] 1737 	rl	a
      001096 54 03            [12] 1738 	anl	a,#0x03
                                   1739 ;	code/rda5807/RDA5807M.c:481: mute = (~mute) & 0x01;
      001098 F4               [12] 1740 	cpl	a
      001099 30 E0 0C         [24] 1741 	jnb	acc.0,00102$
                                   1742 ;	code/rda5807/RDA5807M.c:482: if (mute)
                                   1743 ;	code/rda5807/RDA5807M.c:484: band |= 1 << 14;
      00109C 8E 04            [24] 1744 	mov	ar4,r6
      00109E 8F 05            [24] 1745 	mov	ar5,r7
      0010A0 43 05 40         [24] 1746 	orl	ar5,#0x40
                                   1747 ;	code/rda5807/RDA5807M.c:485: MUTE_STATUS = 1;
      0010A3 75 3D 01         [24] 1748 	mov	_MUTE_STATUS,#0x01
      0010A6 80 0A            [24] 1749 	sjmp	00103$
      0010A8                       1750 00102$:
                                   1751 ;	code/rda5807/RDA5807M.c:489: band &= ~(1 << 14);
      0010A8 53 07 BF         [24] 1752 	anl	ar7,#0xbf
      0010AB 8E 04            [24] 1753 	mov	ar4,r6
      0010AD 8F 05            [24] 1754 	mov	ar5,r7
                                   1755 ;	code/rda5807/RDA5807M.c:490: MUTE_STATUS = 0;
      0010AF 75 3D 00         [24] 1756 	mov	_MUTE_STATUS,#0x00
      0010B2                       1757 00103$:
                                   1758 ;	code/rda5807/RDA5807M.c:492: RDA5807M_Write_Reg(0x02, band);
      0010B2 8C 3E            [24] 1759 	mov	_RDA5807M_Write_Reg_PARM_2,r4
      0010B4 8D 3F            [24] 1760 	mov	(_RDA5807M_Write_Reg_PARM_2 + 1),r5
      0010B6 75 82 02         [24] 1761 	mov	dpl, #0x02
                                   1762 ;	code/rda5807/RDA5807M.c:493: }
      0010B9 02 0A 7C         [24] 1763 	ljmp	_RDA5807M_Write_Reg
                                   1764 ;------------------------------------------------------------
                                   1765 ;Allocation info for local variables in function 'RDA5807M_Set_Output_Idle'
                                   1766 ;------------------------------------------------------------
                                   1767 ;flage         Allocated to registers r7 
                                   1768 ;impedance     Allocated to registers r4 r7 
                                   1769 ;------------------------------------------------------------
                                   1770 ;	code/rda5807/RDA5807M.c:500: void RDA5807M_Set_Output_Idle(uint8_t flage)
                                   1771 ;	-----------------------------------------
                                   1772 ;	 function RDA5807M_Set_Output_Idle
                                   1773 ;	-----------------------------------------
      0010BC                       1774 _RDA5807M_Set_Output_Idle:
      0010BC AF 82            [24] 1775 	mov	r7, dpl
                                   1776 ;	code/rda5807/RDA5807M.c:503: impedance = RDA5807M_Read_Reg(0x02);
      0010BE 75 82 02         [24] 1777 	mov	dpl, #0x02
      0010C1 C0 07            [24] 1778 	push	ar7
      0010C3 12 0A AF         [24] 1779 	lcall	_RDA5807M_Read_Reg
      0010C6 AD 82            [24] 1780 	mov	r5, dpl
      0010C8 AE 83            [24] 1781 	mov	r6, dph
      0010CA D0 07            [24] 1782 	pop	ar7
                                   1783 ;	code/rda5807/RDA5807M.c:504: if (flage)
      0010CC EF               [12] 1784 	mov	a,r7
      0010CD 60 09            [24] 1785 	jz	00102$
                                   1786 ;	code/rda5807/RDA5807M.c:506: impedance &= ~(1 << 15);
      0010CF 8D 04            [24] 1787 	mov	ar4,r5
      0010D1 8E 07            [24] 1788 	mov	ar7,r6
      0010D3 53 07 7F         [24] 1789 	anl	ar7,#0x7f
      0010D6 80 07            [24] 1790 	sjmp	00103$
      0010D8                       1791 00102$:
                                   1792 ;	code/rda5807/RDA5807M.c:510: impedance |= 1 << 15;
      0010D8 43 06 80         [24] 1793 	orl	ar6,#0x80
      0010DB 8D 04            [24] 1794 	mov	ar4,r5
      0010DD 8E 07            [24] 1795 	mov	ar7,r6
      0010DF                       1796 00103$:
                                   1797 ;	code/rda5807/RDA5807M.c:512: RDA5807M_Write_Reg(0x02, impedance);
      0010DF 8C 3E            [24] 1798 	mov	_RDA5807M_Write_Reg_PARM_2,r4
      0010E1 8F 3F            [24] 1799 	mov	(_RDA5807M_Write_Reg_PARM_2 + 1),r7
      0010E3 75 82 02         [24] 1800 	mov	dpl, #0x02
                                   1801 ;	code/rda5807/RDA5807M.c:513: }
      0010E6 02 0A 7C         [24] 1802 	ljmp	_RDA5807M_Write_Reg
                                   1803 ;------------------------------------------------------------
                                   1804 ;Allocation info for local variables in function 'RDA5807M_Read_RSSI'
                                   1805 ;------------------------------------------------------------
                                   1806 ;temp_rssi     Allocated to registers r6 r7 
                                   1807 ;------------------------------------------------------------
                                   1808 ;	code/rda5807/RDA5807M.c:519: uint8_t RDA5807M_Read_RSSI(void)
                                   1809 ;	-----------------------------------------
                                   1810 ;	 function RDA5807M_Read_RSSI
                                   1811 ;	-----------------------------------------
      0010E9                       1812 _RDA5807M_Read_RSSI:
                                   1813 ;	code/rda5807/RDA5807M.c:522: temp_rssi = RDA5807M_Read_Reg(0x0B);
      0010E9 75 82 0B         [24] 1814 	mov	dpl, #0x0b
      0010EC 12 0A AF         [24] 1815 	lcall	_RDA5807M_Read_Reg
                                   1816 ;	code/rda5807/RDA5807M.c:523: temp_rssi >>= 9;
      0010EF E5 83            [12] 1817 	mov	a,dph
      0010F1 C3               [12] 1818 	clr	c
      0010F2 13               [12] 1819 	rrc	a
                                   1820 ;	code/rda5807/RDA5807M.c:524: return (uint8_t)temp_rssi;
      0010F3 F5 82            [12] 1821 	mov	dpl, a
                                   1822 ;	code/rda5807/RDA5807M.c:525: }
      0010F5 22               [24] 1823 	ret
                                   1824 ;------------------------------------------------------------
                                   1825 ;Allocation info for local variables in function 'RDA5807M_CHIPID'
                                   1826 ;------------------------------------------------------------
                                   1827 ;	code/rda5807/RDA5807M.c:532: uint16_t RDA5807M_CHIPID(void)
                                   1828 ;	-----------------------------------------
                                   1829 ;	 function RDA5807M_CHIPID
                                   1830 ;	-----------------------------------------
      0010F6                       1831 _RDA5807M_CHIPID:
                                   1832 ;	code/rda5807/RDA5807M.c:534: return RDA5807M_Read_Reg(0x00);
      0010F6 75 82 00         [24] 1833 	mov	dpl, #0x00
                                   1834 ;	code/rda5807/RDA5807M.c:535: }
      0010F9 02 0A AF         [24] 1835 	ljmp	_RDA5807M_Read_Reg
                                   1836 ;------------------------------------------------------------
                                   1837 ;Allocation info for local variables in function 'RDA5807M_Set_FreqRange'
                                   1838 ;------------------------------------------------------------
                                   1839 ;Range         Allocated to registers r7 
                                   1840 ;band          Allocated to registers 
                                   1841 ;------------------------------------------------------------
                                   1842 ;	code/rda5807/RDA5807M.c:546: void RDA5807M_Set_FreqRange(uint8_t Range)
                                   1843 ;	-----------------------------------------
                                   1844 ;	 function RDA5807M_Set_FreqRange
                                   1845 ;	-----------------------------------------
      0010FC                       1846 _RDA5807M_Set_FreqRange:
      0010FC AF 82            [24] 1847 	mov	r7, dpl
                                   1848 ;	code/rda5807/RDA5807M.c:549: band = RDA5807M_Read_Reg(0x03);
      0010FE 75 82 03         [24] 1849 	mov	dpl, #0x03
      001101 C0 07            [24] 1850 	push	ar7
      001103 12 0A AF         [24] 1851 	lcall	_RDA5807M_Read_Reg
      001106 AD 82            [24] 1852 	mov	r5, dpl
      001108 AE 83            [24] 1853 	mov	r6, dph
      00110A D0 07            [24] 1854 	pop	ar7
                                   1855 ;	code/rda5807/RDA5807M.c:550: if (Range == BAND_87_108)
      00110C BF 01 11         [24] 1856 	cjne	r7,#0x01,00113$
                                   1857 ;	code/rda5807/RDA5807M.c:552: band &= ~(1 << 3);
      00110F 8D 03            [24] 1858 	mov	ar3,r5
      001111 8E 04            [24] 1859 	mov	ar4,r6
                                   1860 ;	code/rda5807/RDA5807M.c:553: band &= ~(1 << 2);
      001113 53 03 F3         [24] 1861 	anl	ar3,#(0xf7&0xfb)
      001116 8B 3E            [24] 1862 	mov	_RDA5807M_Write_Reg_PARM_2,r3
      001118 8C 3F            [24] 1863 	mov	(_RDA5807M_Write_Reg_PARM_2 + 1),r4
                                   1864 ;	code/rda5807/RDA5807M.c:554: RDA5807M_Write_Reg(0x03, band);
      00111A 75 82 03         [24] 1865 	mov	dpl, #0x03
      00111D 02 0A 7C         [24] 1866 	ljmp	_RDA5807M_Write_Reg
      001120                       1867 00113$:
                                   1868 ;	code/rda5807/RDA5807M.c:556: else if (Range == BAND_76_91)
      001120 BF 02 14         [24] 1869 	cjne	r7,#0x02,00110$
                                   1870 ;	code/rda5807/RDA5807M.c:558: band &= ~(1 << 3);
      001123 8D 03            [24] 1871 	mov	ar3,r5
      001125 8E 04            [24] 1872 	mov	ar4,r6
      001127 53 03 F7         [24] 1873 	anl	ar3,#0xf7
                                   1874 ;	code/rda5807/RDA5807M.c:559: band |= 1 << 2;
      00112A 74 04            [12] 1875 	mov	a,#0x04
      00112C 4B               [12] 1876 	orl	a,r3
      00112D F5 3E            [12] 1877 	mov	_RDA5807M_Write_Reg_PARM_2,a
      00112F 8C 3F            [24] 1878 	mov	(_RDA5807M_Write_Reg_PARM_2 + 1),r4
                                   1879 ;	code/rda5807/RDA5807M.c:560: RDA5807M_Write_Reg(0x03, band);
      001131 75 82 03         [24] 1880 	mov	dpl, #0x03
      001134 02 0A 7C         [24] 1881 	ljmp	_RDA5807M_Write_Reg
      001137                       1882 00110$:
                                   1883 ;	code/rda5807/RDA5807M.c:562: else if (Range == BAND_76_108)
      001137 BF 03 14         [24] 1884 	cjne	r7,#0x03,00107$
                                   1885 ;	code/rda5807/RDA5807M.c:564: band |= 1 << 3;
      00113A 43 05 08         [24] 1886 	orl	ar5,#0x08
                                   1887 ;	code/rda5807/RDA5807M.c:565: band &= ~(1 << 2);
      00113D 8D 03            [24] 1888 	mov	ar3,r5
      00113F 8E 04            [24] 1889 	mov	ar4,r6
      001141 53 03 FB         [24] 1890 	anl	ar3,#0xfb
      001144 8B 3E            [24] 1891 	mov	_RDA5807M_Write_Reg_PARM_2,r3
      001146 8C 3F            [24] 1892 	mov	(_RDA5807M_Write_Reg_PARM_2 + 1),r4
                                   1893 ;	code/rda5807/RDA5807M.c:566: RDA5807M_Write_Reg(0x03, band);
      001148 75 82 03         [24] 1894 	mov	dpl, #0x03
      00114B 02 0A 7C         [24] 1895 	ljmp	_RDA5807M_Write_Reg
      00114E                       1896 00107$:
                                   1897 ;	code/rda5807/RDA5807M.c:568: else if (Range == BAND_65_76)
      00114E BF 04 27         [24] 1898 	cjne	r7,#0x04,00104$
                                   1899 ;	code/rda5807/RDA5807M.c:570: band |= 1 << 2;
      001151 43 05 04         [24] 1900 	orl	ar5,#0x04
                                   1901 ;	code/rda5807/RDA5807M.c:571: band |= 1 << 3;
      001154 74 08            [12] 1902 	mov	a,#0x08
      001156 4D               [12] 1903 	orl	a,r5
      001157 F5 3E            [12] 1904 	mov	_RDA5807M_Write_Reg_PARM_2,a
      001159 8E 3F            [24] 1905 	mov	(_RDA5807M_Write_Reg_PARM_2 + 1),r6
                                   1906 ;	code/rda5807/RDA5807M.c:572: RDA5807M_Write_Reg(0x03, band);
      00115B 75 82 03         [24] 1907 	mov	dpl, #0x03
      00115E 12 0A 7C         [24] 1908 	lcall	_RDA5807M_Write_Reg
                                   1909 ;	code/rda5807/RDA5807M.c:573: band = RDA5807M_Read_Reg(0x07);
      001161 75 82 07         [24] 1910 	mov	dpl, #0x07
      001164 12 0A AF         [24] 1911 	lcall	_RDA5807M_Read_Reg
      001167 AB 82            [24] 1912 	mov	r3, dpl
      001169 AC 83            [24] 1913 	mov	r4, dph
                                   1914 ;	code/rda5807/RDA5807M.c:574: band |= 1 << 9;
      00116B 43 04 02         [24] 1915 	orl	ar4,#0x02
      00116E 8B 3E            [24] 1916 	mov	_RDA5807M_Write_Reg_PARM_2,r3
      001170 8C 3F            [24] 1917 	mov	(_RDA5807M_Write_Reg_PARM_2 + 1),r4
                                   1918 ;	code/rda5807/RDA5807M.c:575: RDA5807M_Write_Reg(0x07, band);
      001172 75 82 07         [24] 1919 	mov	dpl, #0x07
      001175 02 0A 7C         [24] 1920 	ljmp	_RDA5807M_Write_Reg
      001178                       1921 00104$:
                                   1922 ;	code/rda5807/RDA5807M.c:577: else if (Range == BAND_50_76)
      001178 BF 05 27         [24] 1923 	cjne	r7,#0x05,00115$
                                   1924 ;	code/rda5807/RDA5807M.c:579: band |= 1 << 2;
      00117B 43 05 04         [24] 1925 	orl	ar5,#0x04
                                   1926 ;	code/rda5807/RDA5807M.c:580: band |= 1 << 3;
      00117E 74 08            [12] 1927 	mov	a,#0x08
      001180 4D               [12] 1928 	orl	a,r5
      001181 F5 3E            [12] 1929 	mov	_RDA5807M_Write_Reg_PARM_2,a
      001183 8E 3F            [24] 1930 	mov	(_RDA5807M_Write_Reg_PARM_2 + 1),r6
                                   1931 ;	code/rda5807/RDA5807M.c:581: RDA5807M_Write_Reg(0x03, band);
      001185 75 82 03         [24] 1932 	mov	dpl, #0x03
      001188 12 0A 7C         [24] 1933 	lcall	_RDA5807M_Write_Reg
                                   1934 ;	code/rda5807/RDA5807M.c:582: band = RDA5807M_Read_Reg(0x07);
      00118B 75 82 07         [24] 1935 	mov	dpl, #0x07
      00118E 12 0A AF         [24] 1936 	lcall	_RDA5807M_Read_Reg
      001191 AE 82            [24] 1937 	mov	r6, dpl
      001193 AF 83            [24] 1938 	mov	r7, dph
                                   1939 ;	code/rda5807/RDA5807M.c:583: band &= ~(1 << 9);
      001195 53 07 FD         [24] 1940 	anl	ar7,#0xfd
      001198 8E 3E            [24] 1941 	mov	_RDA5807M_Write_Reg_PARM_2,r6
      00119A 8F 3F            [24] 1942 	mov	(_RDA5807M_Write_Reg_PARM_2 + 1),r7
                                   1943 ;	code/rda5807/RDA5807M.c:584: RDA5807M_Write_Reg(0x07, band);
      00119C 75 82 07         [24] 1944 	mov	dpl, #0x07
                                   1945 ;	code/rda5807/RDA5807M.c:586: }
      00119F 02 0A 7C         [24] 1946 	ljmp	_RDA5807M_Write_Reg
      0011A2                       1947 00115$:
      0011A2 22               [24] 1948 	ret
                                   1949 ;------------------------------------------------------------
                                   1950 ;Allocation info for local variables in function 'RDA5807M_Set_Freqspace_step'
                                   1951 ;------------------------------------------------------------
                                   1952 ;SPACE         Allocated to registers r7 
                                   1953 ;band          Allocated to registers r3 r4 
                                   1954 ;------------------------------------------------------------
                                   1955 ;	code/rda5807/RDA5807M.c:593: void RDA5807M_Set_Freqspace_step(uint8_t SPACE)
                                   1956 ;	-----------------------------------------
                                   1957 ;	 function RDA5807M_Set_Freqspace_step
                                   1958 ;	-----------------------------------------
      0011A3                       1959 _RDA5807M_Set_Freqspace_step:
      0011A3 AF 82            [24] 1960 	mov	r7, dpl
                                   1961 ;	code/rda5807/RDA5807M.c:597: band = RDA5807M_Read_Reg(0x03);
      0011A5 75 82 03         [24] 1962 	mov	dpl, #0x03
      0011A8 C0 07            [24] 1963 	push	ar7
      0011AA 12 0A AF         [24] 1964 	lcall	_RDA5807M_Read_Reg
      0011AD AD 82            [24] 1965 	mov	r5, dpl
      0011AF AE 83            [24] 1966 	mov	r6, dph
      0011B1 D0 07            [24] 1967 	pop	ar7
                                   1968 ;	code/rda5807/RDA5807M.c:598: if (SPACE == Space_100kHz)
      0011B3 BF 01 0D         [24] 1969 	cjne	r7,#0x01,00110$
                                   1970 ;	code/rda5807/RDA5807M.c:600: band &= ~(1 << 1);
      0011B6 8D 03            [24] 1971 	mov	ar3,r5
      0011B8 8E 04            [24] 1972 	mov	ar4,r6
                                   1973 ;	code/rda5807/RDA5807M.c:601: band &= ~(1 << 0);
      0011BA 53 03 FC         [24] 1974 	anl	ar3,#(0xfd&0xfe)
      0011BD 8B 05            [24] 1975 	mov	ar5,r3
      0011BF 8C 06            [24] 1976 	mov	ar6,r4
      0011C1 80 34            [24] 1977 	sjmp	00111$
      0011C3                       1978 00110$:
                                   1979 ;	code/rda5807/RDA5807M.c:603: else if (SPACE == Space_200kHz)
      0011C3 BF 02 0F         [24] 1980 	cjne	r7,#0x02,00107$
                                   1981 ;	code/rda5807/RDA5807M.c:605: band &= ~(1 << 1);
      0011C6 8D 03            [24] 1982 	mov	ar3,r5
      0011C8 8E 04            [24] 1983 	mov	ar4,r6
      0011CA 53 03 FD         [24] 1984 	anl	ar3,#0xfd
                                   1985 ;	code/rda5807/RDA5807M.c:606: band |= 1 << 0;
      0011CD 74 01            [12] 1986 	mov	a,#0x01
      0011CF 4B               [12] 1987 	orl	a,r3
      0011D0 FD               [12] 1988 	mov	r5,a
      0011D1 8C 06            [24] 1989 	mov	ar6,r4
      0011D3 80 22            [24] 1990 	sjmp	00111$
      0011D5                       1991 00107$:
                                   1992 ;	code/rda5807/RDA5807M.c:608: else if (SPACE == Space_50KHz)
      0011D5 BF 03 10         [24] 1993 	cjne	r7,#0x03,00104$
                                   1994 ;	code/rda5807/RDA5807M.c:610: band |= 1 << 1;
      0011D8 43 05 02         [24] 1995 	orl	ar5,#0x02
                                   1996 ;	code/rda5807/RDA5807M.c:611: band &= ~(1 << 0);
      0011DB 8D 03            [24] 1997 	mov	ar3,r5
      0011DD 8E 04            [24] 1998 	mov	ar4,r6
      0011DF 53 03 FE         [24] 1999 	anl	ar3,#0xfe
      0011E2 8B 05            [24] 2000 	mov	ar5,r3
      0011E4 8C 06            [24] 2001 	mov	ar6,r4
      0011E6 80 0F            [24] 2002 	sjmp	00111$
      0011E8                       2003 00104$:
                                   2004 ;	code/rda5807/RDA5807M.c:613: else if (SPACE == Space_25KHz)
      0011E8 BF 04 0C         [24] 2005 	cjne	r7,#0x04,00111$
                                   2006 ;	code/rda5807/RDA5807M.c:615: band |= 1 << 1;
      0011EB 74 02            [12] 2007 	mov	a,#0x02
      0011ED 4D               [12] 2008 	orl	a,r5
      0011EE FC               [12] 2009 	mov	r4,a
      0011EF 8E 07            [24] 2010 	mov	ar7,r6
                                   2011 ;	code/rda5807/RDA5807M.c:616: band |= 1 << 0;
      0011F1 74 01            [12] 2012 	mov	a,#0x01
      0011F3 4C               [12] 2013 	orl	a,r4
      0011F4 FD               [12] 2014 	mov	r5,a
      0011F5 8F 06            [24] 2015 	mov	ar6,r7
      0011F7                       2016 00111$:
                                   2017 ;	code/rda5807/RDA5807M.c:618: RDA5807M_Write_Reg(0x03, band);
      0011F7 8D 3E            [24] 2018 	mov	_RDA5807M_Write_Reg_PARM_2,r5
      0011F9 8E 3F            [24] 2019 	mov	(_RDA5807M_Write_Reg_PARM_2 + 1),r6
      0011FB 75 82 03         [24] 2020 	mov	dpl, #0x03
                                   2021 ;	code/rda5807/RDA5807M.c:619: }
      0011FE 02 0A 7C         [24] 2022 	ljmp	_RDA5807M_Write_Reg
                                   2023 ;------------------------------------------------------------
                                   2024 ;Allocation info for local variables in function 'RDA5807M_Reast'
                                   2025 ;------------------------------------------------------------
                                   2026 ;	code/rda5807/RDA5807M.c:625: void RDA5807M_Reast(void)
                                   2027 ;	-----------------------------------------
                                   2028 ;	 function RDA5807M_Reast
                                   2029 ;	-----------------------------------------
      001201                       2030 _RDA5807M_Reast:
                                   2031 ;	code/rda5807/RDA5807M.c:627: RDA5807M_Write_Reg(0x02, 0x0003); // 复位
      001201 75 3E 03         [24] 2032 	mov	_RDA5807M_Write_Reg_PARM_2,#0x03
      001204 75 3F 00         [24] 2033 	mov	(_RDA5807M_Write_Reg_PARM_2 + 1),#0x00
      001207 75 82 02         [24] 2034 	mov	dpl, #0x02
      00120A 12 0A 7C         [24] 2035 	lcall	_RDA5807M_Write_Reg
                                   2036 ;	code/rda5807/RDA5807M.c:628: Delay(50);
      00120D 90 00 32         [24] 2037 	mov	dptr,#0x0032
                                   2038 ;	code/rda5807/RDA5807M.c:629: }
      001210 02 05 BB         [24] 2039 	ljmp	_Delay
                                   2040 	.area CSEG    (CODE)
                                   2041 	.area CONST   (CODE)
                                   2042 	.area XINIT   (CODE)
                                   2043 	.area CABS    (ABS,CODE)
